ARM GAS  /tmp/ccHJbOwl.s 			page 1


   1              		.cpu cortex-m0plus
   2              		.arch armv6s-m
   3              		.fpu softvfp
   4              		.eabi_attribute 20, 1
   5              		.eabi_attribute 21, 1
   6              		.eabi_attribute 23, 3
   7              		.eabi_attribute 24, 1
   8              		.eabi_attribute 25, 1
   9              		.eabi_attribute 26, 1
  10              		.eabi_attribute 30, 1
  11              		.eabi_attribute 34, 0
  12              		.eabi_attribute 18, 4
  13              		.file	"py32f0xx_hal_comp.c"
  14              		.text
  15              	.Ltext0:
  16              		.cfi_sections	.debug_frame
  17              		.file 1 "PY32F0xx_HAL_Driver/Src/py32f0xx_hal_comp.c"
  18              		.section	.text.HAL_COMP_MspInit,"ax",%progbits
  19              		.align	1
  20              		.weak	HAL_COMP_MspInit
  21              		.syntax unified
  22              		.code	16
  23              		.thumb_func
  25              	HAL_COMP_MspInit:
  26              	.LVL0:
  27              	.LFB57:
   1:PY32F0xx_HAL_Driver/Src/py32f0xx_hal_comp.c **** /**
   2:PY32F0xx_HAL_Driver/Src/py32f0xx_hal_comp.c ****   ******************************************************************************
   3:PY32F0xx_HAL_Driver/Src/py32f0xx_hal_comp.c ****   * @file    py32f0xx_hal_comp.c
   4:PY32F0xx_HAL_Driver/Src/py32f0xx_hal_comp.c ****   * @author  MCU Application Team
   5:PY32F0xx_HAL_Driver/Src/py32f0xx_hal_comp.c ****   * @brief   COMP HAL module driver.
   6:PY32F0xx_HAL_Driver/Src/py32f0xx_hal_comp.c ****   *          This file provides firmware functions to manage the following
   7:PY32F0xx_HAL_Driver/Src/py32f0xx_hal_comp.c ****   *          functionalities of the COMP peripheral:
   8:PY32F0xx_HAL_Driver/Src/py32f0xx_hal_comp.c ****   *           + Initialization and de-initialization functions
   9:PY32F0xx_HAL_Driver/Src/py32f0xx_hal_comp.c ****   *           + Start/Stop operation functions in polling mode
  10:PY32F0xx_HAL_Driver/Src/py32f0xx_hal_comp.c ****   *           + Start/Stop operation functions in interrupt mode (through EXTI interrupt)
  11:PY32F0xx_HAL_Driver/Src/py32f0xx_hal_comp.c ****   *           + Peripheral control functions
  12:PY32F0xx_HAL_Driver/Src/py32f0xx_hal_comp.c ****   *           + Peripheral state functions
  13:PY32F0xx_HAL_Driver/Src/py32f0xx_hal_comp.c ****   *
  14:PY32F0xx_HAL_Driver/Src/py32f0xx_hal_comp.c ****   @verbatim
  15:PY32F0xx_HAL_Driver/Src/py32f0xx_hal_comp.c **** ================================================================================
  16:PY32F0xx_HAL_Driver/Src/py32f0xx_hal_comp.c ****           ##### COMP Peripheral features #####
  17:PY32F0xx_HAL_Driver/Src/py32f0xx_hal_comp.c **** ================================================================================
  18:PY32F0xx_HAL_Driver/Src/py32f0xx_hal_comp.c **** 
  19:PY32F0xx_HAL_Driver/Src/py32f0xx_hal_comp.c ****   [..]
  20:PY32F0xx_HAL_Driver/Src/py32f0xx_hal_comp.c ****       The PY32F0xx device family integrates two analog comparators instances:
  21:PY32F0xx_HAL_Driver/Src/py32f0xx_hal_comp.c ****       COMP1, COMP2.
  22:PY32F0xx_HAL_Driver/Src/py32f0xx_hal_comp.c ****       (#) Comparators input minus (inverting input) and input plus (non inverting input)
  23:PY32F0xx_HAL_Driver/Src/py32f0xx_hal_comp.c ****           can be set to internal references or to GPIO pins
  24:PY32F0xx_HAL_Driver/Src/py32f0xx_hal_comp.c ****           (refer to GPIO list in reference manual).
  25:PY32F0xx_HAL_Driver/Src/py32f0xx_hal_comp.c **** 
  26:PY32F0xx_HAL_Driver/Src/py32f0xx_hal_comp.c ****       (#) Comparators output level is available using HAL_COMP_GetOutputLevel()
  27:PY32F0xx_HAL_Driver/Src/py32f0xx_hal_comp.c ****           and can be redirected to other peripherals: GPIO pins (in mode
  28:PY32F0xx_HAL_Driver/Src/py32f0xx_hal_comp.c ****           alternate functions for comparator), timers.
  29:PY32F0xx_HAL_Driver/Src/py32f0xx_hal_comp.c ****           (refer to GPIO list in reference manual).
  30:PY32F0xx_HAL_Driver/Src/py32f0xx_hal_comp.c **** 
  31:PY32F0xx_HAL_Driver/Src/py32f0xx_hal_comp.c ****       (#) The comparators have interrupt capability through the EXTI controller
ARM GAS  /tmp/ccHJbOwl.s 			page 2


  32:PY32F0xx_HAL_Driver/Src/py32f0xx_hal_comp.c ****           with wake-up from sleep and stop modes.
  33:PY32F0xx_HAL_Driver/Src/py32f0xx_hal_comp.c **** 
  34:PY32F0xx_HAL_Driver/Src/py32f0xx_hal_comp.c ****       (#) Pairs of comparators instances can be combined in window mode
  35:PY32F0xx_HAL_Driver/Src/py32f0xx_hal_comp.c ****           (2 consecutive instances odd and even COMP<x> and COMP<x+1>).
  36:PY32F0xx_HAL_Driver/Src/py32f0xx_hal_comp.c **** 
  37:PY32F0xx_HAL_Driver/Src/py32f0xx_hal_comp.c ****           From the corresponding IRQ handler, the right interrupt source can be retrieved
  38:PY32F0xx_HAL_Driver/Src/py32f0xx_hal_comp.c ****           using macro __HAL_COMP_COMPx_EXTI_GET_FLAG().
  39:PY32F0xx_HAL_Driver/Src/py32f0xx_hal_comp.c **** 
  40:PY32F0xx_HAL_Driver/Src/py32f0xx_hal_comp.c ****             ##### How to use this driver #####
  41:PY32F0xx_HAL_Driver/Src/py32f0xx_hal_comp.c **** ================================================================================
  42:PY32F0xx_HAL_Driver/Src/py32f0xx_hal_comp.c ****   [..]
  43:PY32F0xx_HAL_Driver/Src/py32f0xx_hal_comp.c ****       This driver provides functions to configure and program the comparator instances
  44:PY32F0xx_HAL_Driver/Src/py32f0xx_hal_comp.c ****       of PY32F0xx devices.
  45:PY32F0xx_HAL_Driver/Src/py32f0xx_hal_comp.c **** 
  46:PY32F0xx_HAL_Driver/Src/py32f0xx_hal_comp.c ****       To use the comparator, perform the following steps:
  47:PY32F0xx_HAL_Driver/Src/py32f0xx_hal_comp.c **** 
  48:PY32F0xx_HAL_Driver/Src/py32f0xx_hal_comp.c ****       (#)  Initialize the COMP low level resources by implementing the HAL_COMP_MspInit():
  49:PY32F0xx_HAL_Driver/Src/py32f0xx_hal_comp.c ****       (++) Configure the GPIO connected to comparator inputs plus and minus in analog mode
  50:PY32F0xx_HAL_Driver/Src/py32f0xx_hal_comp.c ****            using HAL_GPIO_Init().
  51:PY32F0xx_HAL_Driver/Src/py32f0xx_hal_comp.c ****       (++) If needed, configure the GPIO connected to comparator output in alternate function mode
  52:PY32F0xx_HAL_Driver/Src/py32f0xx_hal_comp.c ****            using HAL_GPIO_Init().
  53:PY32F0xx_HAL_Driver/Src/py32f0xx_hal_comp.c ****       (++) If required enable the COMP interrupt by configuring and enabling EXTI line in Interrupt
  54:PY32F0xx_HAL_Driver/Src/py32f0xx_hal_comp.c ****            selecting the desired sensitivity level using HAL_GPIO_Init() function. After that enabl
  55:PY32F0xx_HAL_Driver/Src/py32f0xx_hal_comp.c ****            interrupt vector using HAL_NVIC_EnableIRQ() function.
  56:PY32F0xx_HAL_Driver/Src/py32f0xx_hal_comp.c **** 
  57:PY32F0xx_HAL_Driver/Src/py32f0xx_hal_comp.c ****       (#) Configure the comparator using HAL_COMP_Init() function:
  58:PY32F0xx_HAL_Driver/Src/py32f0xx_hal_comp.c ****       (++) Select the input minus (inverting input)
  59:PY32F0xx_HAL_Driver/Src/py32f0xx_hal_comp.c ****       (++) Select the input plus (non-inverting input)
  60:PY32F0xx_HAL_Driver/Src/py32f0xx_hal_comp.c ****       (++) Select the hysteresis
  61:PY32F0xx_HAL_Driver/Src/py32f0xx_hal_comp.c ****       (++) Select the blanking source
  62:PY32F0xx_HAL_Driver/Src/py32f0xx_hal_comp.c ****       (++) Select the output polarity
  63:PY32F0xx_HAL_Driver/Src/py32f0xx_hal_comp.c ****       (++) Select the power mode
  64:PY32F0xx_HAL_Driver/Src/py32f0xx_hal_comp.c ****       (++) Select the window mode
  65:PY32F0xx_HAL_Driver/Src/py32f0xx_hal_comp.c **** 
  66:PY32F0xx_HAL_Driver/Src/py32f0xx_hal_comp.c ****       -@@- HAL_COMP_Init() calls internally __HAL_RCC_SYSCFG_CLK_ENABLE()
  67:PY32F0xx_HAL_Driver/Src/py32f0xx_hal_comp.c ****           to enable internal control clock of the comparators.
  68:PY32F0xx_HAL_Driver/Src/py32f0xx_hal_comp.c ****           However, this is a legacy strategy. In future PY32 families,
  69:PY32F0xx_HAL_Driver/Src/py32f0xx_hal_comp.c ****           COMP clock enable must be implemented by user in "HAL_COMP_MspInit()".
  70:PY32F0xx_HAL_Driver/Src/py32f0xx_hal_comp.c ****           Therefore, for compatibility anticipation, it is recommended to
  71:PY32F0xx_HAL_Driver/Src/py32f0xx_hal_comp.c ****           implement __HAL_RCC_SYSCFG_CLK_ENABLE() in "HAL_COMP_MspInit()".
  72:PY32F0xx_HAL_Driver/Src/py32f0xx_hal_comp.c **** 
  73:PY32F0xx_HAL_Driver/Src/py32f0xx_hal_comp.c ****       (#) Reconfiguration on-the-fly of comparator can be done by calling again
  74:PY32F0xx_HAL_Driver/Src/py32f0xx_hal_comp.c ****           function HAL_COMP_Init() with new input structure parameters values.
  75:PY32F0xx_HAL_Driver/Src/py32f0xx_hal_comp.c **** 
  76:PY32F0xx_HAL_Driver/Src/py32f0xx_hal_comp.c ****       (#) Enable the comparator using HAL_COMP_Start() function.
  77:PY32F0xx_HAL_Driver/Src/py32f0xx_hal_comp.c **** 
  78:PY32F0xx_HAL_Driver/Src/py32f0xx_hal_comp.c ****       (#) Use HAL_COMP_TriggerCallback() or HAL_COMP_GetOutputLevel() functions
  79:PY32F0xx_HAL_Driver/Src/py32f0xx_hal_comp.c ****           to manage comparator outputs (events and output level).
  80:PY32F0xx_HAL_Driver/Src/py32f0xx_hal_comp.c **** 
  81:PY32F0xx_HAL_Driver/Src/py32f0xx_hal_comp.c ****       (#) Disable the comparator using HAL_COMP_Stop() function.
  82:PY32F0xx_HAL_Driver/Src/py32f0xx_hal_comp.c **** 
  83:PY32F0xx_HAL_Driver/Src/py32f0xx_hal_comp.c ****       (#) De-initialize the comparator using HAL_COMP_DeInit() function.
  84:PY32F0xx_HAL_Driver/Src/py32f0xx_hal_comp.c **** 
  85:PY32F0xx_HAL_Driver/Src/py32f0xx_hal_comp.c ****       (#) For safety purpose, comparator configuration can be locked using HAL_COMP_Lock() function
  86:PY32F0xx_HAL_Driver/Src/py32f0xx_hal_comp.c ****           The only way to unlock the comparator is a device hardware reset.
  87:PY32F0xx_HAL_Driver/Src/py32f0xx_hal_comp.c **** 
  88:PY32F0xx_HAL_Driver/Src/py32f0xx_hal_comp.c ****     *** Callback registration ***
ARM GAS  /tmp/ccHJbOwl.s 			page 3


  89:PY32F0xx_HAL_Driver/Src/py32f0xx_hal_comp.c ****     =============================================
  90:PY32F0xx_HAL_Driver/Src/py32f0xx_hal_comp.c ****     [..]
  91:PY32F0xx_HAL_Driver/Src/py32f0xx_hal_comp.c **** 
  92:PY32F0xx_HAL_Driver/Src/py32f0xx_hal_comp.c ****      The compilation flag USE_HAL_COMP_REGISTER_CALLBACKS, when set to 1,
  93:PY32F0xx_HAL_Driver/Src/py32f0xx_hal_comp.c ****      allows the user to configure dynamically the driver callbacks.
  94:PY32F0xx_HAL_Driver/Src/py32f0xx_hal_comp.c ****      Use Functions @ref HAL_COMP_RegisterCallback()
  95:PY32F0xx_HAL_Driver/Src/py32f0xx_hal_comp.c ****      to register an interrupt callback.
  96:PY32F0xx_HAL_Driver/Src/py32f0xx_hal_comp.c ****     [..]
  97:PY32F0xx_HAL_Driver/Src/py32f0xx_hal_comp.c **** 
  98:PY32F0xx_HAL_Driver/Src/py32f0xx_hal_comp.c ****      Function @ref HAL_COMP_RegisterCallback() allows to register following callbacks:
  99:PY32F0xx_HAL_Driver/Src/py32f0xx_hal_comp.c ****        (+) TriggerCallback       : callback for COMP trigger.
 100:PY32F0xx_HAL_Driver/Src/py32f0xx_hal_comp.c ****        (+) MspInitCallback       : callback for Msp Init.
 101:PY32F0xx_HAL_Driver/Src/py32f0xx_hal_comp.c ****        (+) MspDeInitCallback     : callback for Msp DeInit.
 102:PY32F0xx_HAL_Driver/Src/py32f0xx_hal_comp.c ****      This function takes as parameters the HAL peripheral handle, the Callback ID
 103:PY32F0xx_HAL_Driver/Src/py32f0xx_hal_comp.c ****      and a pointer to the user callback function.
 104:PY32F0xx_HAL_Driver/Src/py32f0xx_hal_comp.c ****     [..]
 105:PY32F0xx_HAL_Driver/Src/py32f0xx_hal_comp.c **** 
 106:PY32F0xx_HAL_Driver/Src/py32f0xx_hal_comp.c ****      Use function @ref HAL_COMP_UnRegisterCallback to reset a callback to the default
 107:PY32F0xx_HAL_Driver/Src/py32f0xx_hal_comp.c ****      weak function.
 108:PY32F0xx_HAL_Driver/Src/py32f0xx_hal_comp.c ****     [..]
 109:PY32F0xx_HAL_Driver/Src/py32f0xx_hal_comp.c **** 
 110:PY32F0xx_HAL_Driver/Src/py32f0xx_hal_comp.c ****      @ref HAL_COMP_UnRegisterCallback takes as parameters the HAL peripheral handle,
 111:PY32F0xx_HAL_Driver/Src/py32f0xx_hal_comp.c ****      and the Callback ID.
 112:PY32F0xx_HAL_Driver/Src/py32f0xx_hal_comp.c ****      This function allows to reset following callbacks:
 113:PY32F0xx_HAL_Driver/Src/py32f0xx_hal_comp.c ****        (+) TriggerCallback       : callback for COMP trigger.
 114:PY32F0xx_HAL_Driver/Src/py32f0xx_hal_comp.c ****        (+) MspInitCallback       : callback for Msp Init.
 115:PY32F0xx_HAL_Driver/Src/py32f0xx_hal_comp.c ****        (+) MspDeInitCallback     : callback for Msp DeInit.
 116:PY32F0xx_HAL_Driver/Src/py32f0xx_hal_comp.c ****      [..]
 117:PY32F0xx_HAL_Driver/Src/py32f0xx_hal_comp.c **** 
 118:PY32F0xx_HAL_Driver/Src/py32f0xx_hal_comp.c ****      By default, after the @ref HAL_COMP_Init() and when the state is @ref HAL_COMP_STATE_RESET
 119:PY32F0xx_HAL_Driver/Src/py32f0xx_hal_comp.c ****      all callbacks are set to the corresponding weak functions:
 120:PY32F0xx_HAL_Driver/Src/py32f0xx_hal_comp.c ****      example @ref HAL_COMP_TriggerCallback().
 121:PY32F0xx_HAL_Driver/Src/py32f0xx_hal_comp.c ****      Exception done for MspInit and MspDeInit functions that are
 122:PY32F0xx_HAL_Driver/Src/py32f0xx_hal_comp.c ****      reset to the legacy weak functions in the @ref HAL_COMP_Init()/ @ref HAL_COMP_DeInit() only wh
 123:PY32F0xx_HAL_Driver/Src/py32f0xx_hal_comp.c ****      these callbacks are null (not registered beforehand).
 124:PY32F0xx_HAL_Driver/Src/py32f0xx_hal_comp.c ****     [..]
 125:PY32F0xx_HAL_Driver/Src/py32f0xx_hal_comp.c **** 
 126:PY32F0xx_HAL_Driver/Src/py32f0xx_hal_comp.c ****      If MspInit or MspDeInit are not null, the @ref HAL_COMP_Init()/ @ref HAL_COMP_DeInit()
 127:PY32F0xx_HAL_Driver/Src/py32f0xx_hal_comp.c ****      keep and use the user MspInit/MspDeInit callbacks (registered beforehand) whatever the state.
 128:PY32F0xx_HAL_Driver/Src/py32f0xx_hal_comp.c ****      [..]
 129:PY32F0xx_HAL_Driver/Src/py32f0xx_hal_comp.c **** 
 130:PY32F0xx_HAL_Driver/Src/py32f0xx_hal_comp.c ****      Callbacks can be registered/unregistered in @ref HAL_COMP_STATE_READY state only.
 131:PY32F0xx_HAL_Driver/Src/py32f0xx_hal_comp.c ****      Exception done MspInit/MspDeInit functions that can be registered/unregistered
 132:PY32F0xx_HAL_Driver/Src/py32f0xx_hal_comp.c ****      in @ref HAL_COMP_STATE_READY or @ref HAL_COMP_STATE_RESET state,
 133:PY32F0xx_HAL_Driver/Src/py32f0xx_hal_comp.c ****      thus registered (user) MspInit/DeInit callbacks can be used during the Init/DeInit.
 134:PY32F0xx_HAL_Driver/Src/py32f0xx_hal_comp.c ****     [..]
 135:PY32F0xx_HAL_Driver/Src/py32f0xx_hal_comp.c **** 
 136:PY32F0xx_HAL_Driver/Src/py32f0xx_hal_comp.c ****      Then, the user first registers the MspInit/MspDeInit user callbacks
 137:PY32F0xx_HAL_Driver/Src/py32f0xx_hal_comp.c ****      using @ref HAL_COMP_RegisterCallback() before calling @ref HAL_COMP_DeInit()
 138:PY32F0xx_HAL_Driver/Src/py32f0xx_hal_comp.c ****      or @ref HAL_COMP_Init() function.
 139:PY32F0xx_HAL_Driver/Src/py32f0xx_hal_comp.c ****      [..]
 140:PY32F0xx_HAL_Driver/Src/py32f0xx_hal_comp.c **** 
 141:PY32F0xx_HAL_Driver/Src/py32f0xx_hal_comp.c ****      When the compilation flag USE_HAL_COMP_REGISTER_CALLBACKS is set to 0 or
 142:PY32F0xx_HAL_Driver/Src/py32f0xx_hal_comp.c ****      not defined, the callback registration feature is not available and all callbacks
 143:PY32F0xx_HAL_Driver/Src/py32f0xx_hal_comp.c ****      are set to the corresponding weak functions.
 144:PY32F0xx_HAL_Driver/Src/py32f0xx_hal_comp.c **** 
 145:PY32F0xx_HAL_Driver/Src/py32f0xx_hal_comp.c ****   @endverbatim
ARM GAS  /tmp/ccHJbOwl.s 			page 4


 146:PY32F0xx_HAL_Driver/Src/py32f0xx_hal_comp.c ****   ******************************************************************************
 147:PY32F0xx_HAL_Driver/Src/py32f0xx_hal_comp.c ****   * @attention
 148:PY32F0xx_HAL_Driver/Src/py32f0xx_hal_comp.c ****   *
 149:PY32F0xx_HAL_Driver/Src/py32f0xx_hal_comp.c ****   * <h2><center>&copy; Copyright (c) Puya Semiconductor Co.
 150:PY32F0xx_HAL_Driver/Src/py32f0xx_hal_comp.c ****   * All rights reserved.</center></h2>
 151:PY32F0xx_HAL_Driver/Src/py32f0xx_hal_comp.c ****   *
 152:PY32F0xx_HAL_Driver/Src/py32f0xx_hal_comp.c ****   * <h2><center>&copy; Copyright (c) 2016 STMicroelectronics.
 153:PY32F0xx_HAL_Driver/Src/py32f0xx_hal_comp.c ****   * All rights reserved.</center></h2>
 154:PY32F0xx_HAL_Driver/Src/py32f0xx_hal_comp.c ****   *
 155:PY32F0xx_HAL_Driver/Src/py32f0xx_hal_comp.c ****   * This software component is licensed by ST under BSD 3-Clause license,
 156:PY32F0xx_HAL_Driver/Src/py32f0xx_hal_comp.c ****   * the "License"; You may not use this file except in compliance with the
 157:PY32F0xx_HAL_Driver/Src/py32f0xx_hal_comp.c ****   * License. You may obtain a copy of the License at:
 158:PY32F0xx_HAL_Driver/Src/py32f0xx_hal_comp.c ****   *                        opensource.org/licenses/BSD-3-Clause
 159:PY32F0xx_HAL_Driver/Src/py32f0xx_hal_comp.c ****   *
 160:PY32F0xx_HAL_Driver/Src/py32f0xx_hal_comp.c ****   ******************************************************************************
 161:PY32F0xx_HAL_Driver/Src/py32f0xx_hal_comp.c ****   */
 162:PY32F0xx_HAL_Driver/Src/py32f0xx_hal_comp.c **** 
 163:PY32F0xx_HAL_Driver/Src/py32f0xx_hal_comp.c **** /* Includes ------------------------------------------------------------------*/
 164:PY32F0xx_HAL_Driver/Src/py32f0xx_hal_comp.c **** #include "py32f0xx_hal.h"
 165:PY32F0xx_HAL_Driver/Src/py32f0xx_hal_comp.c **** 
 166:PY32F0xx_HAL_Driver/Src/py32f0xx_hal_comp.c **** /** @addtogroup PY32F0xx_HAL_Driver
 167:PY32F0xx_HAL_Driver/Src/py32f0xx_hal_comp.c ****   * @{
 168:PY32F0xx_HAL_Driver/Src/py32f0xx_hal_comp.c ****   */
 169:PY32F0xx_HAL_Driver/Src/py32f0xx_hal_comp.c **** 
 170:PY32F0xx_HAL_Driver/Src/py32f0xx_hal_comp.c **** #ifdef HAL_COMP_MODULE_ENABLED
 171:PY32F0xx_HAL_Driver/Src/py32f0xx_hal_comp.c **** 
 172:PY32F0xx_HAL_Driver/Src/py32f0xx_hal_comp.c **** 
 173:PY32F0xx_HAL_Driver/Src/py32f0xx_hal_comp.c **** 
 174:PY32F0xx_HAL_Driver/Src/py32f0xx_hal_comp.c **** /** @defgroup COMP COMP
 175:PY32F0xx_HAL_Driver/Src/py32f0xx_hal_comp.c ****   * @brief COMP HAL module driver
 176:PY32F0xx_HAL_Driver/Src/py32f0xx_hal_comp.c ****   * @{
 177:PY32F0xx_HAL_Driver/Src/py32f0xx_hal_comp.c ****   */
 178:PY32F0xx_HAL_Driver/Src/py32f0xx_hal_comp.c **** 
 179:PY32F0xx_HAL_Driver/Src/py32f0xx_hal_comp.c **** /* Private typedef -----------------------------------------------------------*/
 180:PY32F0xx_HAL_Driver/Src/py32f0xx_hal_comp.c **** /* Private define ------------------------------------------------------------*/
 181:PY32F0xx_HAL_Driver/Src/py32f0xx_hal_comp.c **** /** @addtogroup COMP_Private_Constants
 182:PY32F0xx_HAL_Driver/Src/py32f0xx_hal_comp.c ****   * @{
 183:PY32F0xx_HAL_Driver/Src/py32f0xx_hal_comp.c ****   */
 184:PY32F0xx_HAL_Driver/Src/py32f0xx_hal_comp.c **** 
 185:PY32F0xx_HAL_Driver/Src/py32f0xx_hal_comp.c **** /* Delay for COMP startup time.                                               */
 186:PY32F0xx_HAL_Driver/Src/py32f0xx_hal_comp.c **** /* Note: Delay required to reach propagation delay specification.             */
 187:PY32F0xx_HAL_Driver/Src/py32f0xx_hal_comp.c **** /* Literal set to maximum value (refer to device datasheet,                   */
 188:PY32F0xx_HAL_Driver/Src/py32f0xx_hal_comp.c **** /* parameter "tSTART").                                                       */
 189:PY32F0xx_HAL_Driver/Src/py32f0xx_hal_comp.c **** /* Unit: us                                                                   */
 190:PY32F0xx_HAL_Driver/Src/py32f0xx_hal_comp.c **** #define COMP_DELAY_STARTUP_US          (80UL) /*!< Delay for COMP startup time */
 191:PY32F0xx_HAL_Driver/Src/py32f0xx_hal_comp.c **** 
 192:PY32F0xx_HAL_Driver/Src/py32f0xx_hal_comp.c **** /* Delay for COMP voltage scaler stabilization time.                          */
 193:PY32F0xx_HAL_Driver/Src/py32f0xx_hal_comp.c **** /* Literal set to maximum value (refer to device datasheet,                   */
 194:PY32F0xx_HAL_Driver/Src/py32f0xx_hal_comp.c **** /* parameter "tSTART_SCALER").                                                */
 195:PY32F0xx_HAL_Driver/Src/py32f0xx_hal_comp.c **** /* Unit: us                                                                   */
 196:PY32F0xx_HAL_Driver/Src/py32f0xx_hal_comp.c **** #define COMP_DELAY_VOLTAGE_SCALER_STAB_US (200UL)  /*!< Delay for COMP voltage scaler stabilization
 197:PY32F0xx_HAL_Driver/Src/py32f0xx_hal_comp.c **** 
 198:PY32F0xx_HAL_Driver/Src/py32f0xx_hal_comp.c **** #define COMP_OUTPUT_LEVEL_BITOFFSET_POS   (COMP_CSR_COMP_OUT_Pos)
 199:PY32F0xx_HAL_Driver/Src/py32f0xx_hal_comp.c **** 
 200:PY32F0xx_HAL_Driver/Src/py32f0xx_hal_comp.c **** /**
 201:PY32F0xx_HAL_Driver/Src/py32f0xx_hal_comp.c ****   * @}
 202:PY32F0xx_HAL_Driver/Src/py32f0xx_hal_comp.c ****   */
ARM GAS  /tmp/ccHJbOwl.s 			page 5


 203:PY32F0xx_HAL_Driver/Src/py32f0xx_hal_comp.c **** 
 204:PY32F0xx_HAL_Driver/Src/py32f0xx_hal_comp.c **** /* Private macro -------------------------------------------------------------*/
 205:PY32F0xx_HAL_Driver/Src/py32f0xx_hal_comp.c **** /* Private variables ---------------------------------------------------------*/
 206:PY32F0xx_HAL_Driver/Src/py32f0xx_hal_comp.c **** /* Private function prototypes -----------------------------------------------*/
 207:PY32F0xx_HAL_Driver/Src/py32f0xx_hal_comp.c **** /* Exported functions --------------------------------------------------------*/
 208:PY32F0xx_HAL_Driver/Src/py32f0xx_hal_comp.c **** 
 209:PY32F0xx_HAL_Driver/Src/py32f0xx_hal_comp.c **** /** @defgroup COMP_Exported_Functions COMP Exported Functions
 210:PY32F0xx_HAL_Driver/Src/py32f0xx_hal_comp.c ****   * @{
 211:PY32F0xx_HAL_Driver/Src/py32f0xx_hal_comp.c ****   */
 212:PY32F0xx_HAL_Driver/Src/py32f0xx_hal_comp.c **** 
 213:PY32F0xx_HAL_Driver/Src/py32f0xx_hal_comp.c **** /** @defgroup COMP_Exported_Functions_Group1 Initialization/de-initialization functions
 214:PY32F0xx_HAL_Driver/Src/py32f0xx_hal_comp.c ****   *  @brief    Initialization and de-initialization functions.
 215:PY32F0xx_HAL_Driver/Src/py32f0xx_hal_comp.c ****   *
 216:PY32F0xx_HAL_Driver/Src/py32f0xx_hal_comp.c **** @verbatim
 217:PY32F0xx_HAL_Driver/Src/py32f0xx_hal_comp.c ****  ===============================================================================
 218:PY32F0xx_HAL_Driver/Src/py32f0xx_hal_comp.c ****               ##### Initialization and de-initialization functions #####
 219:PY32F0xx_HAL_Driver/Src/py32f0xx_hal_comp.c ****  ===============================================================================
 220:PY32F0xx_HAL_Driver/Src/py32f0xx_hal_comp.c ****     [..]  This section provides functions to initialize and de-initialize comparators
 221:PY32F0xx_HAL_Driver/Src/py32f0xx_hal_comp.c **** 
 222:PY32F0xx_HAL_Driver/Src/py32f0xx_hal_comp.c **** @endverbatim
 223:PY32F0xx_HAL_Driver/Src/py32f0xx_hal_comp.c ****   * @{
 224:PY32F0xx_HAL_Driver/Src/py32f0xx_hal_comp.c ****   */
 225:PY32F0xx_HAL_Driver/Src/py32f0xx_hal_comp.c **** 
 226:PY32F0xx_HAL_Driver/Src/py32f0xx_hal_comp.c **** /**
 227:PY32F0xx_HAL_Driver/Src/py32f0xx_hal_comp.c ****   * @brief  Initialize the COMP according to the specified
 228:PY32F0xx_HAL_Driver/Src/py32f0xx_hal_comp.c ****   *         parameters in the COMP_InitTypeDef and initialize the associated handle.
 229:PY32F0xx_HAL_Driver/Src/py32f0xx_hal_comp.c ****   * @note   If the selected comparator is locked, initialization can't be performed.
 230:PY32F0xx_HAL_Driver/Src/py32f0xx_hal_comp.c ****   *         To unlock the configuration, perform a system reset.
 231:PY32F0xx_HAL_Driver/Src/py32f0xx_hal_comp.c ****   * @param  hcomp  COMP handle
 232:PY32F0xx_HAL_Driver/Src/py32f0xx_hal_comp.c ****   * @retval HAL status
 233:PY32F0xx_HAL_Driver/Src/py32f0xx_hal_comp.c ****   */
 234:PY32F0xx_HAL_Driver/Src/py32f0xx_hal_comp.c **** HAL_StatusTypeDef HAL_COMP_Init(COMP_HandleTypeDef *hcomp)
 235:PY32F0xx_HAL_Driver/Src/py32f0xx_hal_comp.c **** {
 236:PY32F0xx_HAL_Driver/Src/py32f0xx_hal_comp.c ****   uint32_t tmp_csr;
 237:PY32F0xx_HAL_Driver/Src/py32f0xx_hal_comp.c ****   uint32_t exti_line;
 238:PY32F0xx_HAL_Driver/Src/py32f0xx_hal_comp.c ****   uint32_t comp_voltage_scaler_initialized; /* Value "0" if comparator voltage scaler is not initia
 239:PY32F0xx_HAL_Driver/Src/py32f0xx_hal_comp.c ****   __IO uint32_t wait_loop_index = 0UL;
 240:PY32F0xx_HAL_Driver/Src/py32f0xx_hal_comp.c ****   HAL_StatusTypeDef status = HAL_OK;
 241:PY32F0xx_HAL_Driver/Src/py32f0xx_hal_comp.c **** 
 242:PY32F0xx_HAL_Driver/Src/py32f0xx_hal_comp.c ****   /* Check the COMP handle allocation and lock status */
 243:PY32F0xx_HAL_Driver/Src/py32f0xx_hal_comp.c ****   if(hcomp == NULL)
 244:PY32F0xx_HAL_Driver/Src/py32f0xx_hal_comp.c ****   {
 245:PY32F0xx_HAL_Driver/Src/py32f0xx_hal_comp.c ****     status = HAL_ERROR;
 246:PY32F0xx_HAL_Driver/Src/py32f0xx_hal_comp.c ****   }
 247:PY32F0xx_HAL_Driver/Src/py32f0xx_hal_comp.c ****   else if(__HAL_COMP_IS_LOCKED(hcomp))
 248:PY32F0xx_HAL_Driver/Src/py32f0xx_hal_comp.c ****   {
 249:PY32F0xx_HAL_Driver/Src/py32f0xx_hal_comp.c ****     status = HAL_ERROR;
 250:PY32F0xx_HAL_Driver/Src/py32f0xx_hal_comp.c ****   }
 251:PY32F0xx_HAL_Driver/Src/py32f0xx_hal_comp.c ****   else
 252:PY32F0xx_HAL_Driver/Src/py32f0xx_hal_comp.c ****   {
 253:PY32F0xx_HAL_Driver/Src/py32f0xx_hal_comp.c ****     /* Check the parameters */
 254:PY32F0xx_HAL_Driver/Src/py32f0xx_hal_comp.c ****     assert_param(IS_COMP_ALL_INSTANCE(hcomp->Instance));
 255:PY32F0xx_HAL_Driver/Src/py32f0xx_hal_comp.c ****     assert_param(IS_COMP_INPUT_PLUS(hcomp->Instance, hcomp->Init.InputPlus));
 256:PY32F0xx_HAL_Driver/Src/py32f0xx_hal_comp.c ****     assert_param(IS_COMP_INPUT_MINUS(hcomp->Instance, hcomp->Init.InputMinus));
 257:PY32F0xx_HAL_Driver/Src/py32f0xx_hal_comp.c ****     assert_param(IS_COMP_OUTPUTPOL(hcomp->Init.OutputPol));
 258:PY32F0xx_HAL_Driver/Src/py32f0xx_hal_comp.c ****     assert_param(IS_COMP_POWERMODE(hcomp->Init.Mode));
 259:PY32F0xx_HAL_Driver/Src/py32f0xx_hal_comp.c ****     assert_param(IS_COMP_HYSTERESIS(hcomp->Init.Hysteresis));
ARM GAS  /tmp/ccHJbOwl.s 			page 6


 260:PY32F0xx_HAL_Driver/Src/py32f0xx_hal_comp.c ****     assert_param(IS_COMP_TRIGGERMODE(hcomp->Init.TriggerMode));
 261:PY32F0xx_HAL_Driver/Src/py32f0xx_hal_comp.c ****     assert_param(IS_COMP_WINDOWMODE(hcomp->Init.WindowMode));
 262:PY32F0xx_HAL_Driver/Src/py32f0xx_hal_comp.c **** 
 263:PY32F0xx_HAL_Driver/Src/py32f0xx_hal_comp.c ****     if(hcomp->State == HAL_COMP_STATE_RESET)
 264:PY32F0xx_HAL_Driver/Src/py32f0xx_hal_comp.c ****     {
 265:PY32F0xx_HAL_Driver/Src/py32f0xx_hal_comp.c ****       /* Allocate lock resource and initialize it */
 266:PY32F0xx_HAL_Driver/Src/py32f0xx_hal_comp.c ****       hcomp->Lock = HAL_UNLOCKED;
 267:PY32F0xx_HAL_Driver/Src/py32f0xx_hal_comp.c **** 
 268:PY32F0xx_HAL_Driver/Src/py32f0xx_hal_comp.c ****       /* Set COMP error code to none */
 269:PY32F0xx_HAL_Driver/Src/py32f0xx_hal_comp.c ****       COMP_CLEAR_ERRORCODE(hcomp);
 270:PY32F0xx_HAL_Driver/Src/py32f0xx_hal_comp.c **** 
 271:PY32F0xx_HAL_Driver/Src/py32f0xx_hal_comp.c **** 
 272:PY32F0xx_HAL_Driver/Src/py32f0xx_hal_comp.c **** #if (USE_HAL_COMP_REGISTER_CALLBACKS == 1)
 273:PY32F0xx_HAL_Driver/Src/py32f0xx_hal_comp.c ****       /* Init the COMP Callback settings */
 274:PY32F0xx_HAL_Driver/Src/py32f0xx_hal_comp.c ****       hcomp->TriggerCallback = HAL_COMP_TriggerCallback; /* Legacy weak callback */
 275:PY32F0xx_HAL_Driver/Src/py32f0xx_hal_comp.c **** 
 276:PY32F0xx_HAL_Driver/Src/py32f0xx_hal_comp.c ****       if (hcomp->MspInitCallback == NULL)
 277:PY32F0xx_HAL_Driver/Src/py32f0xx_hal_comp.c ****       {
 278:PY32F0xx_HAL_Driver/Src/py32f0xx_hal_comp.c ****         hcomp->MspInitCallback = HAL_COMP_MspInit; /* Legacy weak MspInit  */
 279:PY32F0xx_HAL_Driver/Src/py32f0xx_hal_comp.c ****       }
 280:PY32F0xx_HAL_Driver/Src/py32f0xx_hal_comp.c **** 
 281:PY32F0xx_HAL_Driver/Src/py32f0xx_hal_comp.c ****       /* Init the low level hardware */
 282:PY32F0xx_HAL_Driver/Src/py32f0xx_hal_comp.c ****       /* Note: Internal control clock of the comparators must                 */
 283:PY32F0xx_HAL_Driver/Src/py32f0xx_hal_comp.c ****       /*       be enabled in "HAL_COMP_MspInit()"                             */
 284:PY32F0xx_HAL_Driver/Src/py32f0xx_hal_comp.c ****       /*       using "__HAL_RCC_SYSCFG_CLK_ENABLE()".                         */
 285:PY32F0xx_HAL_Driver/Src/py32f0xx_hal_comp.c ****       hcomp->MspInitCallback(hcomp);
 286:PY32F0xx_HAL_Driver/Src/py32f0xx_hal_comp.c **** #else
 287:PY32F0xx_HAL_Driver/Src/py32f0xx_hal_comp.c ****       /* Init the low level hardware */
 288:PY32F0xx_HAL_Driver/Src/py32f0xx_hal_comp.c ****       /* Note: Internal control clock of the comparators must                 */
 289:PY32F0xx_HAL_Driver/Src/py32f0xx_hal_comp.c ****       /*       be enabled in "HAL_COMP_MspInit()"                             */
 290:PY32F0xx_HAL_Driver/Src/py32f0xx_hal_comp.c ****       /*       using "__HAL_RCC_SYSCFG_CLK_ENABLE()".                         */
 291:PY32F0xx_HAL_Driver/Src/py32f0xx_hal_comp.c ****       HAL_COMP_MspInit(hcomp);
 292:PY32F0xx_HAL_Driver/Src/py32f0xx_hal_comp.c **** #endif /* USE_HAL_COMP_REGISTER_CALLBACKS */
 293:PY32F0xx_HAL_Driver/Src/py32f0xx_hal_comp.c ****     }
 294:PY32F0xx_HAL_Driver/Src/py32f0xx_hal_comp.c **** 
 295:PY32F0xx_HAL_Driver/Src/py32f0xx_hal_comp.c ****     /* Memorize voltage scaler state before initialization */
 296:PY32F0xx_HAL_Driver/Src/py32f0xx_hal_comp.c ****     comp_voltage_scaler_initialized = READ_BIT(hcomp->Instance->CSR, (COMP_CSR_INMSEL_1 | COMP_CSR_
 297:PY32F0xx_HAL_Driver/Src/py32f0xx_hal_comp.c **** 
 298:PY32F0xx_HAL_Driver/Src/py32f0xx_hal_comp.c ****     /* Set COMP parameters */
 299:PY32F0xx_HAL_Driver/Src/py32f0xx_hal_comp.c ****     tmp_csr = (  hcomp->Init.InputMinus
 300:PY32F0xx_HAL_Driver/Src/py32f0xx_hal_comp.c ****                  | hcomp->Init.InputPlus
 301:PY32F0xx_HAL_Driver/Src/py32f0xx_hal_comp.c ****                  | hcomp->Init.OutputPol
 302:PY32F0xx_HAL_Driver/Src/py32f0xx_hal_comp.c ****                  | hcomp->Init.Mode
 303:PY32F0xx_HAL_Driver/Src/py32f0xx_hal_comp.c ****               );
 304:PY32F0xx_HAL_Driver/Src/py32f0xx_hal_comp.c **** 
 305:PY32F0xx_HAL_Driver/Src/py32f0xx_hal_comp.c ****     /* Set parameters in COMP register */
 306:PY32F0xx_HAL_Driver/Src/py32f0xx_hal_comp.c ****     /* Note: Update all bits except read-only, lock and enable bits */
 307:PY32F0xx_HAL_Driver/Src/py32f0xx_hal_comp.c ****     MODIFY_REG(hcomp->Instance->CSR,
 308:PY32F0xx_HAL_Driver/Src/py32f0xx_hal_comp.c ****                COMP_CSR_LOCK  | COMP_CSR_COMP_OUT | COMP_CSR_PWRMODE |
 309:PY32F0xx_HAL_Driver/Src/py32f0xx_hal_comp.c ****                COMP_CSR_POLARITY | COMP_CSR_WINMODE | COMP_CSR_INPSEL |
 310:PY32F0xx_HAL_Driver/Src/py32f0xx_hal_comp.c ****                COMP_CSR_INMSEL | COMP_CSR_EN,
 311:PY32F0xx_HAL_Driver/Src/py32f0xx_hal_comp.c ****                tmp_csr
 312:PY32F0xx_HAL_Driver/Src/py32f0xx_hal_comp.c ****               );
 313:PY32F0xx_HAL_Driver/Src/py32f0xx_hal_comp.c **** 
 314:PY32F0xx_HAL_Driver/Src/py32f0xx_hal_comp.c ****     /* Set digital filter */
 315:PY32F0xx_HAL_Driver/Src/py32f0xx_hal_comp.c ****     if (hcomp->Init.DigitalFilter == 0)
 316:PY32F0xx_HAL_Driver/Src/py32f0xx_hal_comp.c ****     {
ARM GAS  /tmp/ccHJbOwl.s 			page 7


 317:PY32F0xx_HAL_Driver/Src/py32f0xx_hal_comp.c ****       /* Disable digital filter */
 318:PY32F0xx_HAL_Driver/Src/py32f0xx_hal_comp.c ****       CLEAR_BIT(hcomp->Instance->FR, COMP_FR_FLTEN);
 319:PY32F0xx_HAL_Driver/Src/py32f0xx_hal_comp.c ****     }else
 320:PY32F0xx_HAL_Driver/Src/py32f0xx_hal_comp.c ****     {
 321:PY32F0xx_HAL_Driver/Src/py32f0xx_hal_comp.c ****       WRITE_REG(hcomp->Instance->FR, (COMP_FR_FLTEN | ((hcomp->Init.DigitalFilter) << COMP_FR_FLTCN
 322:PY32F0xx_HAL_Driver/Src/py32f0xx_hal_comp.c ****     }
 323:PY32F0xx_HAL_Driver/Src/py32f0xx_hal_comp.c **** 
 324:PY32F0xx_HAL_Driver/Src/py32f0xx_hal_comp.c ****     /* Set Vrefint Scaler Enable */
 325:PY32F0xx_HAL_Driver/Src/py32f0xx_hal_comp.c ****     if ((hcomp->Init.InputMinus == COMP_INPUT_MINUS_1_4VREFINT) ||  (hcomp->Init.InputMinus == COMP
 326:PY32F0xx_HAL_Driver/Src/py32f0xx_hal_comp.c **** 			  (hcomp->Init.InputMinus == COMP_INPUT_MINUS_3_4VREFINT) ||  (hcomp->Init.InputMinus == COMP_IN
 327:PY32F0xx_HAL_Driver/Src/py32f0xx_hal_comp.c ****     {
 328:PY32F0xx_HAL_Driver/Src/py32f0xx_hal_comp.c ****       SET_BIT(COMP12_COMMON->CSR_ODD, COMP_CSR_SCALER_EN);
 329:PY32F0xx_HAL_Driver/Src/py32f0xx_hal_comp.c ****     }
 330:PY32F0xx_HAL_Driver/Src/py32f0xx_hal_comp.c **** 
 331:PY32F0xx_HAL_Driver/Src/py32f0xx_hal_comp.c ****     /* Set comparator hysteresis mode */
 332:PY32F0xx_HAL_Driver/Src/py32f0xx_hal_comp.c ****     MODIFY_REG(COMP12_COMMON->CSR_ODD, COMP_CSR_HYST, hcomp->Init.Hysteresis);
 333:PY32F0xx_HAL_Driver/Src/py32f0xx_hal_comp.c **** 
 334:PY32F0xx_HAL_Driver/Src/py32f0xx_hal_comp.c ****     /* Set window mode */
 335:PY32F0xx_HAL_Driver/Src/py32f0xx_hal_comp.c ****     /* Note: Window mode bit is located into 1 out of the 2 pairs of COMP     */
 336:PY32F0xx_HAL_Driver/Src/py32f0xx_hal_comp.c ****     /*       instances. Therefore, this function can update another COMP      */
 337:PY32F0xx_HAL_Driver/Src/py32f0xx_hal_comp.c ****     /*       instance that the one currently selected.                        */
 338:PY32F0xx_HAL_Driver/Src/py32f0xx_hal_comp.c ****     if(hcomp->Init.WindowMode == COMP_WINDOWMODE_COMP1_INPUT_PLUS_COMMON)
 339:PY32F0xx_HAL_Driver/Src/py32f0xx_hal_comp.c ****     {
 340:PY32F0xx_HAL_Driver/Src/py32f0xx_hal_comp.c ****       CLEAR_BIT(COMP12_COMMON->CSR_ODD, COMP_CSR_WINMODE);
 341:PY32F0xx_HAL_Driver/Src/py32f0xx_hal_comp.c ****       SET_BIT(COMP12_COMMON->CSR_EVEN, COMP_CSR_WINMODE);
 342:PY32F0xx_HAL_Driver/Src/py32f0xx_hal_comp.c ****     }
 343:PY32F0xx_HAL_Driver/Src/py32f0xx_hal_comp.c ****     else if(hcomp->Init.WindowMode == COMP_WINDOWMODE_COMP2_INPUT_PLUS_COMMON)
 344:PY32F0xx_HAL_Driver/Src/py32f0xx_hal_comp.c ****     {
 345:PY32F0xx_HAL_Driver/Src/py32f0xx_hal_comp.c ****       SET_BIT(COMP12_COMMON->CSR_ODD, COMP_CSR_WINMODE);
 346:PY32F0xx_HAL_Driver/Src/py32f0xx_hal_comp.c ****       CLEAR_BIT(COMP12_COMMON->CSR_EVEN, COMP_CSR_WINMODE);
 347:PY32F0xx_HAL_Driver/Src/py32f0xx_hal_comp.c ****     }
 348:PY32F0xx_HAL_Driver/Src/py32f0xx_hal_comp.c ****     else
 349:PY32F0xx_HAL_Driver/Src/py32f0xx_hal_comp.c ****     {
 350:PY32F0xx_HAL_Driver/Src/py32f0xx_hal_comp.c ****       CLEAR_BIT(COMP12_COMMON->CSR_ODD, COMP_CSR_WINMODE);
 351:PY32F0xx_HAL_Driver/Src/py32f0xx_hal_comp.c ****       CLEAR_BIT(COMP12_COMMON->CSR_EVEN, COMP_CSR_WINMODE);
 352:PY32F0xx_HAL_Driver/Src/py32f0xx_hal_comp.c ****     }
 353:PY32F0xx_HAL_Driver/Src/py32f0xx_hal_comp.c **** 
 354:PY32F0xx_HAL_Driver/Src/py32f0xx_hal_comp.c ****     /* Delay for COMP scaler bridge voltage stabilization */
 355:PY32F0xx_HAL_Driver/Src/py32f0xx_hal_comp.c ****     /* Apply the delay if voltage scaler bridge is required and not already enabled */
 356:PY32F0xx_HAL_Driver/Src/py32f0xx_hal_comp.c ****     if ((READ_BIT(hcomp->Instance->CSR, (COMP_CSR_INMSEL_1 | COMP_CSR_INMSEL_0)) != 0UL) &&
 357:PY32F0xx_HAL_Driver/Src/py32f0xx_hal_comp.c ****         (comp_voltage_scaler_initialized == 0UL)               )
 358:PY32F0xx_HAL_Driver/Src/py32f0xx_hal_comp.c ****     {
 359:PY32F0xx_HAL_Driver/Src/py32f0xx_hal_comp.c ****       /* Wait loop initialization and execution */
 360:PY32F0xx_HAL_Driver/Src/py32f0xx_hal_comp.c ****       /* Note: Variable divided by 2 to compensate partially              */
 361:PY32F0xx_HAL_Driver/Src/py32f0xx_hal_comp.c ****       /*       CPU processing cycles, scaling in us split to not          */
 362:PY32F0xx_HAL_Driver/Src/py32f0xx_hal_comp.c ****       /*       exceed 32 bits register capacity and handle low frequency. */
 363:PY32F0xx_HAL_Driver/Src/py32f0xx_hal_comp.c ****       wait_loop_index = ((COMP_DELAY_VOLTAGE_SCALER_STAB_US / 10UL) * (SystemCoreClock / (100000UL 
 364:PY32F0xx_HAL_Driver/Src/py32f0xx_hal_comp.c ****       while(wait_loop_index != 0UL)
 365:PY32F0xx_HAL_Driver/Src/py32f0xx_hal_comp.c ****       {
 366:PY32F0xx_HAL_Driver/Src/py32f0xx_hal_comp.c ****         wait_loop_index--;
 367:PY32F0xx_HAL_Driver/Src/py32f0xx_hal_comp.c ****       }
 368:PY32F0xx_HAL_Driver/Src/py32f0xx_hal_comp.c ****     }
 369:PY32F0xx_HAL_Driver/Src/py32f0xx_hal_comp.c **** 
 370:PY32F0xx_HAL_Driver/Src/py32f0xx_hal_comp.c ****     /* Get the EXTI line corresponding to the selected COMP instance */
 371:PY32F0xx_HAL_Driver/Src/py32f0xx_hal_comp.c ****     exti_line = COMP_GET_EXTI_LINE(hcomp->Instance);
 372:PY32F0xx_HAL_Driver/Src/py32f0xx_hal_comp.c **** 
 373:PY32F0xx_HAL_Driver/Src/py32f0xx_hal_comp.c ****     /* Manage EXTI settings */
ARM GAS  /tmp/ccHJbOwl.s 			page 8


 374:PY32F0xx_HAL_Driver/Src/py32f0xx_hal_comp.c ****     if((hcomp->Init.TriggerMode & (COMP_EXTI_IT | COMP_EXTI_EVENT)) != 0UL)
 375:PY32F0xx_HAL_Driver/Src/py32f0xx_hal_comp.c ****     {
 376:PY32F0xx_HAL_Driver/Src/py32f0xx_hal_comp.c ****       /* Configure EXTI rising edge */
 377:PY32F0xx_HAL_Driver/Src/py32f0xx_hal_comp.c ****       if((hcomp->Init.TriggerMode & COMP_EXTI_RISING) != 0UL)
 378:PY32F0xx_HAL_Driver/Src/py32f0xx_hal_comp.c ****       {
 379:PY32F0xx_HAL_Driver/Src/py32f0xx_hal_comp.c ****         LL_EXTI_EnableRisingTrig(exti_line);
 380:PY32F0xx_HAL_Driver/Src/py32f0xx_hal_comp.c ****       }
 381:PY32F0xx_HAL_Driver/Src/py32f0xx_hal_comp.c ****       else
 382:PY32F0xx_HAL_Driver/Src/py32f0xx_hal_comp.c ****       {
 383:PY32F0xx_HAL_Driver/Src/py32f0xx_hal_comp.c ****         LL_EXTI_DisableRisingTrig(exti_line);
 384:PY32F0xx_HAL_Driver/Src/py32f0xx_hal_comp.c ****       }
 385:PY32F0xx_HAL_Driver/Src/py32f0xx_hal_comp.c **** 
 386:PY32F0xx_HAL_Driver/Src/py32f0xx_hal_comp.c ****       /* Configure EXTI falling edge */
 387:PY32F0xx_HAL_Driver/Src/py32f0xx_hal_comp.c ****       if((hcomp->Init.TriggerMode & COMP_EXTI_FALLING) != 0UL)
 388:PY32F0xx_HAL_Driver/Src/py32f0xx_hal_comp.c ****       {
 389:PY32F0xx_HAL_Driver/Src/py32f0xx_hal_comp.c ****         LL_EXTI_EnableFallingTrig(exti_line);
 390:PY32F0xx_HAL_Driver/Src/py32f0xx_hal_comp.c ****       }
 391:PY32F0xx_HAL_Driver/Src/py32f0xx_hal_comp.c ****       else
 392:PY32F0xx_HAL_Driver/Src/py32f0xx_hal_comp.c ****       {
 393:PY32F0xx_HAL_Driver/Src/py32f0xx_hal_comp.c ****         LL_EXTI_DisableFallingTrig(exti_line);
 394:PY32F0xx_HAL_Driver/Src/py32f0xx_hal_comp.c ****       }
 395:PY32F0xx_HAL_Driver/Src/py32f0xx_hal_comp.c **** 
 396:PY32F0xx_HAL_Driver/Src/py32f0xx_hal_comp.c ****       /* Clear COMP EXTI pending bit (if any) */
 397:PY32F0xx_HAL_Driver/Src/py32f0xx_hal_comp.c ****       LL_EXTI_ClearFlag(exti_line);
 398:PY32F0xx_HAL_Driver/Src/py32f0xx_hal_comp.c **** 
 399:PY32F0xx_HAL_Driver/Src/py32f0xx_hal_comp.c ****       /* Configure EXTI event mode */
 400:PY32F0xx_HAL_Driver/Src/py32f0xx_hal_comp.c ****       if((hcomp->Init.TriggerMode & COMP_EXTI_EVENT) != 0UL)
 401:PY32F0xx_HAL_Driver/Src/py32f0xx_hal_comp.c ****       {
 402:PY32F0xx_HAL_Driver/Src/py32f0xx_hal_comp.c ****         LL_EXTI_EnableEvent(exti_line);
 403:PY32F0xx_HAL_Driver/Src/py32f0xx_hal_comp.c ****       }
 404:PY32F0xx_HAL_Driver/Src/py32f0xx_hal_comp.c ****       else
 405:PY32F0xx_HAL_Driver/Src/py32f0xx_hal_comp.c ****       {
 406:PY32F0xx_HAL_Driver/Src/py32f0xx_hal_comp.c ****         LL_EXTI_DisableEvent(exti_line);
 407:PY32F0xx_HAL_Driver/Src/py32f0xx_hal_comp.c ****       }
 408:PY32F0xx_HAL_Driver/Src/py32f0xx_hal_comp.c **** 
 409:PY32F0xx_HAL_Driver/Src/py32f0xx_hal_comp.c ****       /* Configure EXTI interrupt mode */
 410:PY32F0xx_HAL_Driver/Src/py32f0xx_hal_comp.c ****       if((hcomp->Init.TriggerMode & COMP_EXTI_IT) != 0UL)
 411:PY32F0xx_HAL_Driver/Src/py32f0xx_hal_comp.c ****       {
 412:PY32F0xx_HAL_Driver/Src/py32f0xx_hal_comp.c ****         LL_EXTI_EnableIT(exti_line);
 413:PY32F0xx_HAL_Driver/Src/py32f0xx_hal_comp.c ****       }
 414:PY32F0xx_HAL_Driver/Src/py32f0xx_hal_comp.c ****       else
 415:PY32F0xx_HAL_Driver/Src/py32f0xx_hal_comp.c ****       {
 416:PY32F0xx_HAL_Driver/Src/py32f0xx_hal_comp.c ****         LL_EXTI_DisableIT(exti_line);
 417:PY32F0xx_HAL_Driver/Src/py32f0xx_hal_comp.c ****       }
 418:PY32F0xx_HAL_Driver/Src/py32f0xx_hal_comp.c ****     }
 419:PY32F0xx_HAL_Driver/Src/py32f0xx_hal_comp.c ****     else
 420:PY32F0xx_HAL_Driver/Src/py32f0xx_hal_comp.c ****     {
 421:PY32F0xx_HAL_Driver/Src/py32f0xx_hal_comp.c ****       /* Disable EXTI event mode */
 422:PY32F0xx_HAL_Driver/Src/py32f0xx_hal_comp.c ****       LL_EXTI_DisableEvent(exti_line);
 423:PY32F0xx_HAL_Driver/Src/py32f0xx_hal_comp.c **** 
 424:PY32F0xx_HAL_Driver/Src/py32f0xx_hal_comp.c ****       /* Disable EXTI interrupt mode */
 425:PY32F0xx_HAL_Driver/Src/py32f0xx_hal_comp.c ****       LL_EXTI_DisableIT(exti_line);
 426:PY32F0xx_HAL_Driver/Src/py32f0xx_hal_comp.c ****     }
 427:PY32F0xx_HAL_Driver/Src/py32f0xx_hal_comp.c **** 
 428:PY32F0xx_HAL_Driver/Src/py32f0xx_hal_comp.c ****     /* Set HAL COMP handle state */
 429:PY32F0xx_HAL_Driver/Src/py32f0xx_hal_comp.c ****     /* Note: Transition from state reset to state ready,                      */
 430:PY32F0xx_HAL_Driver/Src/py32f0xx_hal_comp.c ****     /*       otherwise (coming from state ready or busy) no state update.     */
ARM GAS  /tmp/ccHJbOwl.s 			page 9


 431:PY32F0xx_HAL_Driver/Src/py32f0xx_hal_comp.c ****     if (hcomp->State == HAL_COMP_STATE_RESET)
 432:PY32F0xx_HAL_Driver/Src/py32f0xx_hal_comp.c ****     {
 433:PY32F0xx_HAL_Driver/Src/py32f0xx_hal_comp.c ****       hcomp->State = HAL_COMP_STATE_READY;
 434:PY32F0xx_HAL_Driver/Src/py32f0xx_hal_comp.c ****     }
 435:PY32F0xx_HAL_Driver/Src/py32f0xx_hal_comp.c ****   }
 436:PY32F0xx_HAL_Driver/Src/py32f0xx_hal_comp.c **** 
 437:PY32F0xx_HAL_Driver/Src/py32f0xx_hal_comp.c ****   return status;
 438:PY32F0xx_HAL_Driver/Src/py32f0xx_hal_comp.c **** }
 439:PY32F0xx_HAL_Driver/Src/py32f0xx_hal_comp.c **** 
 440:PY32F0xx_HAL_Driver/Src/py32f0xx_hal_comp.c **** /**
 441:PY32F0xx_HAL_Driver/Src/py32f0xx_hal_comp.c ****   * @brief  DeInitialize the COMP peripheral.
 442:PY32F0xx_HAL_Driver/Src/py32f0xx_hal_comp.c ****   * @note   Deinitialization cannot be performed if the COMP configuration is locked.
 443:PY32F0xx_HAL_Driver/Src/py32f0xx_hal_comp.c ****   *         To unlock the configuration, perform a system reset.
 444:PY32F0xx_HAL_Driver/Src/py32f0xx_hal_comp.c ****   * @note   DeInitialize COMP1 may affect the hysteresis and Vrefint functions of COMP2.
 445:PY32F0xx_HAL_Driver/Src/py32f0xx_hal_comp.c ****   * @param  hcomp  COMP handle
 446:PY32F0xx_HAL_Driver/Src/py32f0xx_hal_comp.c ****   * @retval HAL status
 447:PY32F0xx_HAL_Driver/Src/py32f0xx_hal_comp.c ****   */
 448:PY32F0xx_HAL_Driver/Src/py32f0xx_hal_comp.c **** HAL_StatusTypeDef HAL_COMP_DeInit(COMP_HandleTypeDef *hcomp)
 449:PY32F0xx_HAL_Driver/Src/py32f0xx_hal_comp.c **** {
 450:PY32F0xx_HAL_Driver/Src/py32f0xx_hal_comp.c ****   HAL_StatusTypeDef status = HAL_OK;
 451:PY32F0xx_HAL_Driver/Src/py32f0xx_hal_comp.c **** 
 452:PY32F0xx_HAL_Driver/Src/py32f0xx_hal_comp.c ****   /* Check the COMP handle allocation and lock status */
 453:PY32F0xx_HAL_Driver/Src/py32f0xx_hal_comp.c ****   if(hcomp == NULL)
 454:PY32F0xx_HAL_Driver/Src/py32f0xx_hal_comp.c ****   {
 455:PY32F0xx_HAL_Driver/Src/py32f0xx_hal_comp.c ****     status = HAL_ERROR;
 456:PY32F0xx_HAL_Driver/Src/py32f0xx_hal_comp.c ****   }
 457:PY32F0xx_HAL_Driver/Src/py32f0xx_hal_comp.c ****   else if(__HAL_COMP_IS_LOCKED(hcomp))
 458:PY32F0xx_HAL_Driver/Src/py32f0xx_hal_comp.c ****   {
 459:PY32F0xx_HAL_Driver/Src/py32f0xx_hal_comp.c ****     status = HAL_ERROR;
 460:PY32F0xx_HAL_Driver/Src/py32f0xx_hal_comp.c ****   }
 461:PY32F0xx_HAL_Driver/Src/py32f0xx_hal_comp.c ****   else
 462:PY32F0xx_HAL_Driver/Src/py32f0xx_hal_comp.c ****   {
 463:PY32F0xx_HAL_Driver/Src/py32f0xx_hal_comp.c ****     /* Check the parameter */
 464:PY32F0xx_HAL_Driver/Src/py32f0xx_hal_comp.c ****     assert_param(IS_COMP_ALL_INSTANCE(hcomp->Instance));
 465:PY32F0xx_HAL_Driver/Src/py32f0xx_hal_comp.c **** 
 466:PY32F0xx_HAL_Driver/Src/py32f0xx_hal_comp.c ****     /* Set COMP_CSR register to reset value */
 467:PY32F0xx_HAL_Driver/Src/py32f0xx_hal_comp.c ****     WRITE_REG(hcomp->Instance->CSR, 0x00000000UL);
 468:PY32F0xx_HAL_Driver/Src/py32f0xx_hal_comp.c **** 
 469:PY32F0xx_HAL_Driver/Src/py32f0xx_hal_comp.c **** #if (USE_HAL_COMP_REGISTER_CALLBACKS == 1)
 470:PY32F0xx_HAL_Driver/Src/py32f0xx_hal_comp.c ****     if (hcomp->MspDeInitCallback == NULL)
 471:PY32F0xx_HAL_Driver/Src/py32f0xx_hal_comp.c ****     {
 472:PY32F0xx_HAL_Driver/Src/py32f0xx_hal_comp.c ****       hcomp->MspDeInitCallback = HAL_COMP_MspDeInit; /* Legacy weak MspDeInit  */
 473:PY32F0xx_HAL_Driver/Src/py32f0xx_hal_comp.c ****     }
 474:PY32F0xx_HAL_Driver/Src/py32f0xx_hal_comp.c **** 
 475:PY32F0xx_HAL_Driver/Src/py32f0xx_hal_comp.c ****     /* DeInit the low level hardware: GPIO, RCC clock, NVIC */
 476:PY32F0xx_HAL_Driver/Src/py32f0xx_hal_comp.c ****     hcomp->MspDeInitCallback(hcomp);
 477:PY32F0xx_HAL_Driver/Src/py32f0xx_hal_comp.c **** #else
 478:PY32F0xx_HAL_Driver/Src/py32f0xx_hal_comp.c ****     /* DeInit the low level hardware: GPIO, RCC clock, NVIC */
 479:PY32F0xx_HAL_Driver/Src/py32f0xx_hal_comp.c ****     HAL_COMP_MspDeInit(hcomp);
 480:PY32F0xx_HAL_Driver/Src/py32f0xx_hal_comp.c **** #endif /* USE_HAL_COMP_REGISTER_CALLBACKS */
 481:PY32F0xx_HAL_Driver/Src/py32f0xx_hal_comp.c **** 
 482:PY32F0xx_HAL_Driver/Src/py32f0xx_hal_comp.c ****     /* Set HAL COMP handle state */
 483:PY32F0xx_HAL_Driver/Src/py32f0xx_hal_comp.c ****     hcomp->State = HAL_COMP_STATE_RESET;
 484:PY32F0xx_HAL_Driver/Src/py32f0xx_hal_comp.c **** 
 485:PY32F0xx_HAL_Driver/Src/py32f0xx_hal_comp.c ****     /* Release Lock */
 486:PY32F0xx_HAL_Driver/Src/py32f0xx_hal_comp.c ****     __HAL_UNLOCK(hcomp);
 487:PY32F0xx_HAL_Driver/Src/py32f0xx_hal_comp.c ****   }
ARM GAS  /tmp/ccHJbOwl.s 			page 10


 488:PY32F0xx_HAL_Driver/Src/py32f0xx_hal_comp.c **** 
 489:PY32F0xx_HAL_Driver/Src/py32f0xx_hal_comp.c ****   return status;
 490:PY32F0xx_HAL_Driver/Src/py32f0xx_hal_comp.c **** }
 491:PY32F0xx_HAL_Driver/Src/py32f0xx_hal_comp.c **** 
 492:PY32F0xx_HAL_Driver/Src/py32f0xx_hal_comp.c **** /**
 493:PY32F0xx_HAL_Driver/Src/py32f0xx_hal_comp.c ****   * @brief  Initialize the COMP MSP.
 494:PY32F0xx_HAL_Driver/Src/py32f0xx_hal_comp.c ****   * @param  hcomp  COMP handle
 495:PY32F0xx_HAL_Driver/Src/py32f0xx_hal_comp.c ****   * @retval None
 496:PY32F0xx_HAL_Driver/Src/py32f0xx_hal_comp.c ****   */
 497:PY32F0xx_HAL_Driver/Src/py32f0xx_hal_comp.c **** __weak void HAL_COMP_MspInit(COMP_HandleTypeDef *hcomp)
 498:PY32F0xx_HAL_Driver/Src/py32f0xx_hal_comp.c **** {
  28              		.loc 1 498 1 view -0
  29              		.cfi_startproc
  30              		@ args = 0, pretend = 0, frame = 0
  31              		@ frame_needed = 0, uses_anonymous_args = 0
  32              		@ link register save eliminated.
 499:PY32F0xx_HAL_Driver/Src/py32f0xx_hal_comp.c ****   /* Prevent unused argument(s) compilation warning */
 500:PY32F0xx_HAL_Driver/Src/py32f0xx_hal_comp.c ****   UNUSED(hcomp);
  33              		.loc 1 500 3 view .LVU1
 501:PY32F0xx_HAL_Driver/Src/py32f0xx_hal_comp.c **** 
 502:PY32F0xx_HAL_Driver/Src/py32f0xx_hal_comp.c ****   /* NOTE : This function should not be modified, when the callback is needed,
 503:PY32F0xx_HAL_Driver/Src/py32f0xx_hal_comp.c ****             the HAL_COMP_MspInit could be implemented in the user file
 504:PY32F0xx_HAL_Driver/Src/py32f0xx_hal_comp.c ****    */
 505:PY32F0xx_HAL_Driver/Src/py32f0xx_hal_comp.c **** }
  34              		.loc 1 505 1 is_stmt 0 view .LVU2
  35              		@ sp needed
  36 0000 7047     		bx	lr
  37              		.cfi_endproc
  38              	.LFE57:
  40              		.section	.text.HAL_COMP_Init,"ax",%progbits
  41              		.align	1
  42              		.global	HAL_COMP_Init
  43              		.syntax unified
  44              		.code	16
  45              		.thumb_func
  47              	HAL_COMP_Init:
  48              	.LVL1:
  49              	.LFB55:
 235:PY32F0xx_HAL_Driver/Src/py32f0xx_hal_comp.c ****   uint32_t tmp_csr;
  50              		.loc 1 235 1 is_stmt 1 view -0
  51              		.cfi_startproc
  52              		@ args = 0, pretend = 0, frame = 8
  53              		@ frame_needed = 0, uses_anonymous_args = 0
 235:PY32F0xx_HAL_Driver/Src/py32f0xx_hal_comp.c ****   uint32_t tmp_csr;
  54              		.loc 1 235 1 is_stmt 0 view .LVU4
  55 0000 30B5     		push	{r4, r5, lr}
  56              	.LCFI0:
  57              		.cfi_def_cfa_offset 12
  58              		.cfi_offset 4, -12
  59              		.cfi_offset 5, -8
  60              		.cfi_offset 14, -4
  61 0002 83B0     		sub	sp, sp, #12
  62              	.LCFI1:
  63              		.cfi_def_cfa_offset 24
  64 0004 0400     		movs	r4, r0
 236:PY32F0xx_HAL_Driver/Src/py32f0xx_hal_comp.c ****   uint32_t exti_line;
  65              		.loc 1 236 3 is_stmt 1 view .LVU5
ARM GAS  /tmp/ccHJbOwl.s 			page 11


 237:PY32F0xx_HAL_Driver/Src/py32f0xx_hal_comp.c ****   uint32_t comp_voltage_scaler_initialized; /* Value "0" if comparator voltage scaler is not initia
  66              		.loc 1 237 3 view .LVU6
 238:PY32F0xx_HAL_Driver/Src/py32f0xx_hal_comp.c ****   __IO uint32_t wait_loop_index = 0UL;
  67              		.loc 1 238 3 view .LVU7
 239:PY32F0xx_HAL_Driver/Src/py32f0xx_hal_comp.c ****   HAL_StatusTypeDef status = HAL_OK;
  68              		.loc 1 239 3 view .LVU8
 239:PY32F0xx_HAL_Driver/Src/py32f0xx_hal_comp.c ****   HAL_StatusTypeDef status = HAL_OK;
  69              		.loc 1 239 17 is_stmt 0 view .LVU9
  70 0006 0023     		movs	r3, #0
  71 0008 0193     		str	r3, [sp, #4]
 240:PY32F0xx_HAL_Driver/Src/py32f0xx_hal_comp.c **** 
  72              		.loc 1 240 3 is_stmt 1 view .LVU10
  73              	.LVL2:
 243:PY32F0xx_HAL_Driver/Src/py32f0xx_hal_comp.c ****   {
  74              		.loc 1 243 3 view .LVU11
 243:PY32F0xx_HAL_Driver/Src/py32f0xx_hal_comp.c ****   {
  75              		.loc 1 243 5 is_stmt 0 view .LVU12
  76 000a 0028     		cmp	r0, #0
  77 000c 00D1     		bne	.LCB37
  78 000e D2E0     		b	.L25	@long jump
  79              	.LCB37:
 247:PY32F0xx_HAL_Driver/Src/py32f0xx_hal_comp.c ****   {
  80              		.loc 1 247 8 is_stmt 1 view .LVU13
 247:PY32F0xx_HAL_Driver/Src/py32f0xx_hal_comp.c ****   {
  81              		.loc 1 247 11 is_stmt 0 view .LVU14
  82 0010 0368     		ldr	r3, [r0]
  83 0012 1B68     		ldr	r3, [r3]
 247:PY32F0xx_HAL_Driver/Src/py32f0xx_hal_comp.c ****   {
  84              		.loc 1 247 10 view .LVU15
  85 0014 002B     		cmp	r3, #0
  86 0016 00DA     		bge	.LCB42
  87 0018 D0E0     		b	.L26	@long jump
  88              	.LCB42:
 254:PY32F0xx_HAL_Driver/Src/py32f0xx_hal_comp.c ****     assert_param(IS_COMP_INPUT_PLUS(hcomp->Instance, hcomp->Init.InputPlus));
  89              		.loc 1 254 5 is_stmt 1 view .LVU16
 255:PY32F0xx_HAL_Driver/Src/py32f0xx_hal_comp.c ****     assert_param(IS_COMP_INPUT_MINUS(hcomp->Instance, hcomp->Init.InputMinus));
  90              		.loc 1 255 5 view .LVU17
 256:PY32F0xx_HAL_Driver/Src/py32f0xx_hal_comp.c ****     assert_param(IS_COMP_OUTPUTPOL(hcomp->Init.OutputPol));
  91              		.loc 1 256 5 view .LVU18
 257:PY32F0xx_HAL_Driver/Src/py32f0xx_hal_comp.c ****     assert_param(IS_COMP_POWERMODE(hcomp->Init.Mode));
  92              		.loc 1 257 5 view .LVU19
 258:PY32F0xx_HAL_Driver/Src/py32f0xx_hal_comp.c ****     assert_param(IS_COMP_HYSTERESIS(hcomp->Init.Hysteresis));
  93              		.loc 1 258 5 view .LVU20
 259:PY32F0xx_HAL_Driver/Src/py32f0xx_hal_comp.c ****     assert_param(IS_COMP_TRIGGERMODE(hcomp->Init.TriggerMode));
  94              		.loc 1 259 5 view .LVU21
 260:PY32F0xx_HAL_Driver/Src/py32f0xx_hal_comp.c ****     assert_param(IS_COMP_WINDOWMODE(hcomp->Init.WindowMode));
  95              		.loc 1 260 5 view .LVU22
 261:PY32F0xx_HAL_Driver/Src/py32f0xx_hal_comp.c **** 
  96              		.loc 1 261 5 view .LVU23
 263:PY32F0xx_HAL_Driver/Src/py32f0xx_hal_comp.c ****     {
  97              		.loc 1 263 5 view .LVU24
 263:PY32F0xx_HAL_Driver/Src/py32f0xx_hal_comp.c ****     {
  98              		.loc 1 263 13 is_stmt 0 view .LVU25
  99 001a 2523     		movs	r3, #37
 100 001c C35C     		ldrb	r3, [r0, r3]
 263:PY32F0xx_HAL_Driver/Src/py32f0xx_hal_comp.c ****     {
 101              		.loc 1 263 7 view .LVU26
ARM GAS  /tmp/ccHJbOwl.s 			page 12


 102 001e 002B     		cmp	r3, #0
 103 0020 4ED0     		beq	.L29
 104              	.LVL3:
 105              	.L4:
 296:PY32F0xx_HAL_Driver/Src/py32f0xx_hal_comp.c **** 
 106              		.loc 1 296 5 is_stmt 1 view .LVU27
 296:PY32F0xx_HAL_Driver/Src/py32f0xx_hal_comp.c **** 
 107              		.loc 1 296 39 is_stmt 0 view .LVU28
 108 0022 2068     		ldr	r0, [r4]
 109 0024 0368     		ldr	r3, [r0]
 296:PY32F0xx_HAL_Driver/Src/py32f0xx_hal_comp.c **** 
 110              		.loc 1 296 37 view .LVU29
 111 0026 3021     		movs	r1, #48
 112 0028 1940     		ands	r1, r3
 113              	.LVL4:
 299:PY32F0xx_HAL_Driver/Src/py32f0xx_hal_comp.c ****                  | hcomp->Init.InputPlus
 114              		.loc 1 299 5 is_stmt 1 view .LVU30
 299:PY32F0xx_HAL_Driver/Src/py32f0xx_hal_comp.c ****                  | hcomp->Init.InputPlus
 115              		.loc 1 299 29 is_stmt 0 view .LVU31
 116 002a 2369     		ldr	r3, [r4, #16]
 300:PY32F0xx_HAL_Driver/Src/py32f0xx_hal_comp.c ****                  | hcomp->Init.OutputPol
 117              		.loc 1 300 31 view .LVU32
 118 002c E268     		ldr	r2, [r4, #12]
 300:PY32F0xx_HAL_Driver/Src/py32f0xx_hal_comp.c ****                  | hcomp->Init.OutputPol
 119              		.loc 1 300 18 view .LVU33
 120 002e 1343     		orrs	r3, r2
 301:PY32F0xx_HAL_Driver/Src/py32f0xx_hal_comp.c ****                  | hcomp->Init.Mode
 121              		.loc 1 301 31 view .LVU34
 122 0030 A269     		ldr	r2, [r4, #24]
 301:PY32F0xx_HAL_Driver/Src/py32f0xx_hal_comp.c ****                  | hcomp->Init.Mode
 123              		.loc 1 301 18 view .LVU35
 124 0032 1343     		orrs	r3, r2
 302:PY32F0xx_HAL_Driver/Src/py32f0xx_hal_comp.c ****               );
 125              		.loc 1 302 31 view .LVU36
 126 0034 A268     		ldr	r2, [r4, #8]
 299:PY32F0xx_HAL_Driver/Src/py32f0xx_hal_comp.c ****                  | hcomp->Init.InputPlus
 127              		.loc 1 299 13 view .LVU37
 128 0036 1343     		orrs	r3, r2
 129              	.LVL5:
 307:PY32F0xx_HAL_Driver/Src/py32f0xx_hal_comp.c ****                COMP_CSR_LOCK  | COMP_CSR_COMP_OUT | COMP_CSR_PWRMODE |
 130              		.loc 1 307 5 is_stmt 1 view .LVU38
 131 0038 0268     		ldr	r2, [r0]
 132 003a 624D     		ldr	r5, .L33
 133 003c 2A40     		ands	r2, r5
 134 003e 1343     		orrs	r3, r2
 135              	.LVL6:
 307:PY32F0xx_HAL_Driver/Src/py32f0xx_hal_comp.c ****                COMP_CSR_LOCK  | COMP_CSR_COMP_OUT | COMP_CSR_PWRMODE |
 136              		.loc 1 307 5 is_stmt 0 view .LVU39
 137 0040 0360     		str	r3, [r0]
 138              	.LVL7:
 315:PY32F0xx_HAL_Driver/Src/py32f0xx_hal_comp.c ****     {
 139              		.loc 1 315 5 is_stmt 1 view .LVU40
 315:PY32F0xx_HAL_Driver/Src/py32f0xx_hal_comp.c ****     {
 140              		.loc 1 315 20 is_stmt 0 view .LVU41
 141 0042 E369     		ldr	r3, [r4, #28]
 315:PY32F0xx_HAL_Driver/Src/py32f0xx_hal_comp.c ****     {
 142              		.loc 1 315 8 view .LVU42
ARM GAS  /tmp/ccHJbOwl.s 			page 13


 143 0044 002B     		cmp	r3, #0
 144 0046 41D1     		bne	.L5
 318:PY32F0xx_HAL_Driver/Src/py32f0xx_hal_comp.c ****     }else
 145              		.loc 1 318 7 is_stmt 1 view .LVU43
 146 0048 2268     		ldr	r2, [r4]
 147 004a 5368     		ldr	r3, [r2, #4]
 148 004c 0120     		movs	r0, #1
 149 004e 8343     		bics	r3, r0
 150 0050 5360     		str	r3, [r2, #4]
 151              	.L6:
 325:PY32F0xx_HAL_Driver/Src/py32f0xx_hal_comp.c **** 			  (hcomp->Init.InputMinus == COMP_INPUT_MINUS_3_4VREFINT) ||  (hcomp->Init.InputMinus == COMP_IN
 152              		.loc 1 325 5 view .LVU44
 325:PY32F0xx_HAL_Driver/Src/py32f0xx_hal_comp.c **** 			  (hcomp->Init.InputMinus == COMP_INPUT_MINUS_3_4VREFINT) ||  (hcomp->Init.InputMinus == COMP_IN
 153              		.loc 1 325 21 is_stmt 0 view .LVU45
 154 0052 2369     		ldr	r3, [r4, #16]
 325:PY32F0xx_HAL_Driver/Src/py32f0xx_hal_comp.c **** 			  (hcomp->Init.InputMinus == COMP_INPUT_MINUS_3_4VREFINT) ||  (hcomp->Init.InputMinus == COMP_IN
 155              		.loc 1 325 8 view .LVU46
 156 0054 002B     		cmp	r3, #0
 157 0056 05D0     		beq	.L7
 325:PY32F0xx_HAL_Driver/Src/py32f0xx_hal_comp.c **** 			  (hcomp->Init.InputMinus == COMP_INPUT_MINUS_3_4VREFINT) ||  (hcomp->Init.InputMinus == COMP_IN
 158              		.loc 1 325 65 discriminator 1 view .LVU47
 159 0058 102B     		cmp	r3, #16
 160 005a 03D0     		beq	.L7
 325:PY32F0xx_HAL_Driver/Src/py32f0xx_hal_comp.c **** 			  (hcomp->Init.InputMinus == COMP_INPUT_MINUS_3_4VREFINT) ||  (hcomp->Init.InputMinus == COMP_IN
 161              		.loc 1 325 125 discriminator 2 view .LVU48
 162 005c 202B     		cmp	r3, #32
 163 005e 01D0     		beq	.L7
 326:PY32F0xx_HAL_Driver/Src/py32f0xx_hal_comp.c ****     {
 164              		.loc 1 326 62 view .LVU49
 165 0060 302B     		cmp	r3, #48
 166 0062 04D1     		bne	.L8
 167              	.L7:
 328:PY32F0xx_HAL_Driver/Src/py32f0xx_hal_comp.c ****     }
 168              		.loc 1 328 7 is_stmt 1 view .LVU50
 169 0064 584A     		ldr	r2, .L33+4
 170 0066 1368     		ldr	r3, [r2]
 171 0068 0220     		movs	r0, #2
 172 006a 0343     		orrs	r3, r0
 173 006c 1360     		str	r3, [r2]
 174              	.L8:
 332:PY32F0xx_HAL_Driver/Src/py32f0xx_hal_comp.c **** 
 175              		.loc 1 332 5 view .LVU51
 176 006e 564A     		ldr	r2, .L33+4
 177 0070 1368     		ldr	r3, [r2]
 178 0072 5648     		ldr	r0, .L33+8
 179 0074 0340     		ands	r3, r0
 180 0076 6069     		ldr	r0, [r4, #20]
 181 0078 0343     		orrs	r3, r0
 182 007a 1360     		str	r3, [r2]
 338:PY32F0xx_HAL_Driver/Src/py32f0xx_hal_comp.c ****     {
 183              		.loc 1 338 5 view .LVU52
 338:PY32F0xx_HAL_Driver/Src/py32f0xx_hal_comp.c ****     {
 184              		.loc 1 338 19 is_stmt 0 view .LVU53
 185 007c 6368     		ldr	r3, [r4, #4]
 338:PY32F0xx_HAL_Driver/Src/py32f0xx_hal_comp.c ****     {
 186              		.loc 1 338 7 view .LVU54
 187 007e 8022     		movs	r2, #128
ARM GAS  /tmp/ccHJbOwl.s 			page 14


 188 0080 1201     		lsls	r2, r2, #4
 189 0082 9342     		cmp	r3, r2
 190 0084 28D0     		beq	.L30
 343:PY32F0xx_HAL_Driver/Src/py32f0xx_hal_comp.c ****     {
 191              		.loc 1 343 10 is_stmt 1 view .LVU55
 343:PY32F0xx_HAL_Driver/Src/py32f0xx_hal_comp.c ****     {
 192              		.loc 1 343 12 is_stmt 0 view .LVU56
 193 0086 C022     		movs	r2, #192
 194 0088 5201     		lsls	r2, r2, #5
 195 008a 9342     		cmp	r3, r2
 196 008c 2FD0     		beq	.L31
 350:PY32F0xx_HAL_Driver/Src/py32f0xx_hal_comp.c ****       CLEAR_BIT(COMP12_COMMON->CSR_EVEN, COMP_CSR_WINMODE);
 197              		.loc 1 350 7 is_stmt 1 view .LVU57
 198 008e 4E4B     		ldr	r3, .L33+4
 199 0090 1A68     		ldr	r2, [r3]
 200 0092 4F48     		ldr	r0, .L33+12
 201 0094 0240     		ands	r2, r0
 202 0096 1A60     		str	r2, [r3]
 351:PY32F0xx_HAL_Driver/Src/py32f0xx_hal_comp.c ****     }
 203              		.loc 1 351 7 view .LVU58
 204 0098 1A69     		ldr	r2, [r3, #16]
 205 009a 0240     		ands	r2, r0
 206 009c 1A61     		str	r2, [r3, #16]
 207              	.L10:
 356:PY32F0xx_HAL_Driver/Src/py32f0xx_hal_comp.c ****         (comp_voltage_scaler_initialized == 0UL)               )
 208              		.loc 1 356 5 view .LVU59
 356:PY32F0xx_HAL_Driver/Src/py32f0xx_hal_comp.c ****         (comp_voltage_scaler_initialized == 0UL)               )
 209              		.loc 1 356 10 is_stmt 0 view .LVU60
 210 009e 2568     		ldr	r5, [r4]
 211 00a0 2B68     		ldr	r3, [r5]
 212 00a2 3022     		movs	r2, #48
 356:PY32F0xx_HAL_Driver/Src/py32f0xx_hal_comp.c ****         (comp_voltage_scaler_initialized == 0UL)               )
 213              		.loc 1 356 8 view .LVU61
 214 00a4 1A42     		tst	r2, r3
 215 00a6 33D0     		beq	.L12
 356:PY32F0xx_HAL_Driver/Src/py32f0xx_hal_comp.c ****         (comp_voltage_scaler_initialized == 0UL)               )
 216              		.loc 1 356 90 discriminator 1 view .LVU62
 217 00a8 0029     		cmp	r1, #0
 218 00aa 31D1     		bne	.L12
 363:PY32F0xx_HAL_Driver/Src/py32f0xx_hal_comp.c ****       while(wait_loop_index != 0UL)
 219              		.loc 1 363 7 is_stmt 1 view .LVU63
 363:PY32F0xx_HAL_Driver/Src/py32f0xx_hal_comp.c ****       while(wait_loop_index != 0UL)
 220              		.loc 1 363 88 is_stmt 0 view .LVU64
 221 00ac 494B     		ldr	r3, .L33+16
 222 00ae 1868     		ldr	r0, [r3]
 223 00b0 4949     		ldr	r1, .L33+20
 224              	.LVL8:
 363:PY32F0xx_HAL_Driver/Src/py32f0xx_hal_comp.c ****       while(wait_loop_index != 0UL)
 225              		.loc 1 363 88 view .LVU65
 226 00b2 FFF7FEFF 		bl	__aeabi_uidiv
 227              	.LVL9:
 363:PY32F0xx_HAL_Driver/Src/py32f0xx_hal_comp.c ****       while(wait_loop_index != 0UL)
 228              		.loc 1 363 69 view .LVU66
 229 00b6 8300     		lsls	r3, r0, #2
 230 00b8 1B18     		adds	r3, r3, r0
 231 00ba 9B00     		lsls	r3, r3, #2
 363:PY32F0xx_HAL_Driver/Src/py32f0xx_hal_comp.c ****       while(wait_loop_index != 0UL)
ARM GAS  /tmp/ccHJbOwl.s 			page 15


 232              		.loc 1 363 23 view .LVU67
 233 00bc 0193     		str	r3, [sp, #4]
 364:PY32F0xx_HAL_Driver/Src/py32f0xx_hal_comp.c ****       {
 234              		.loc 1 364 7 is_stmt 1 view .LVU68
 364:PY32F0xx_HAL_Driver/Src/py32f0xx_hal_comp.c ****       {
 235              		.loc 1 364 12 is_stmt 0 view .LVU69
 236 00be 24E0     		b	.L13
 237              	.LVL10:
 238              	.L29:
 266:PY32F0xx_HAL_Driver/Src/py32f0xx_hal_comp.c **** 
 239              		.loc 1 266 7 is_stmt 1 view .LVU70
 266:PY32F0xx_HAL_Driver/Src/py32f0xx_hal_comp.c **** 
 240              		.loc 1 266 19 is_stmt 0 view .LVU71
 241 00c0 2422     		movs	r2, #36
 242 00c2 8354     		strb	r3, [r0, r2]
 269:PY32F0xx_HAL_Driver/Src/py32f0xx_hal_comp.c **** 
 243              		.loc 1 269 7 is_stmt 1 view .LVU72
 244 00c4 8362     		str	r3, [r0, #40]
 291:PY32F0xx_HAL_Driver/Src/py32f0xx_hal_comp.c **** #endif /* USE_HAL_COMP_REGISTER_CALLBACKS */
 245              		.loc 1 291 7 view .LVU73
 246 00c6 FFF7FEFF 		bl	HAL_COMP_MspInit
 247              	.LVL11:
 291:PY32F0xx_HAL_Driver/Src/py32f0xx_hal_comp.c **** #endif /* USE_HAL_COMP_REGISTER_CALLBACKS */
 248              		.loc 1 291 7 is_stmt 0 view .LVU74
 249 00ca AAE7     		b	.L4
 250              	.LVL12:
 251              	.L5:
 321:PY32F0xx_HAL_Driver/Src/py32f0xx_hal_comp.c ****     }
 252              		.loc 1 321 7 is_stmt 1 view .LVU75
 253 00cc 1B04     		lsls	r3, r3, #16
 254 00ce 2268     		ldr	r2, [r4]
 255 00d0 0120     		movs	r0, #1
 256 00d2 0343     		orrs	r3, r0
 257 00d4 5360     		str	r3, [r2, #4]
 258 00d6 BCE7     		b	.L6
 259              	.L30:
 340:PY32F0xx_HAL_Driver/Src/py32f0xx_hal_comp.c ****       SET_BIT(COMP12_COMMON->CSR_EVEN, COMP_CSR_WINMODE);
 260              		.loc 1 340 7 view .LVU76
 261 00d8 3B4B     		ldr	r3, .L33+4
 262 00da 1A68     		ldr	r2, [r3]
 263 00dc 3C48     		ldr	r0, .L33+12
 264 00de 0240     		ands	r2, r0
 265 00e0 1A60     		str	r2, [r3]
 341:PY32F0xx_HAL_Driver/Src/py32f0xx_hal_comp.c ****     }
 266              		.loc 1 341 7 view .LVU77
 267 00e2 1869     		ldr	r0, [r3, #16]
 268 00e4 8022     		movs	r2, #128
 269 00e6 1201     		lsls	r2, r2, #4
 270 00e8 0243     		orrs	r2, r0
 271 00ea 1A61     		str	r2, [r3, #16]
 272 00ec D7E7     		b	.L10
 273              	.L31:
 345:PY32F0xx_HAL_Driver/Src/py32f0xx_hal_comp.c ****       CLEAR_BIT(COMP12_COMMON->CSR_EVEN, COMP_CSR_WINMODE);
 274              		.loc 1 345 7 view .LVU78
 275 00ee 364B     		ldr	r3, .L33+4
 276 00f0 1868     		ldr	r0, [r3]
 277 00f2 8022     		movs	r2, #128
ARM GAS  /tmp/ccHJbOwl.s 			page 16


 278 00f4 1201     		lsls	r2, r2, #4
 279 00f6 0243     		orrs	r2, r0
 280 00f8 1A60     		str	r2, [r3]
 346:PY32F0xx_HAL_Driver/Src/py32f0xx_hal_comp.c ****     }
 281              		.loc 1 346 7 view .LVU79
 282 00fa 1A69     		ldr	r2, [r3, #16]
 283 00fc 3448     		ldr	r0, .L33+12
 284 00fe 0240     		ands	r2, r0
 285 0100 1A61     		str	r2, [r3, #16]
 286 0102 CCE7     		b	.L10
 287              	.LVL13:
 288              	.L14:
 366:PY32F0xx_HAL_Driver/Src/py32f0xx_hal_comp.c ****       }
 289              		.loc 1 366 9 view .LVU80
 366:PY32F0xx_HAL_Driver/Src/py32f0xx_hal_comp.c ****       }
 290              		.loc 1 366 24 is_stmt 0 view .LVU81
 291 0104 019B     		ldr	r3, [sp, #4]
 292 0106 013B     		subs	r3, r3, #1
 293 0108 0193     		str	r3, [sp, #4]
 294              	.L13:
 364:PY32F0xx_HAL_Driver/Src/py32f0xx_hal_comp.c ****       {
 295              		.loc 1 364 29 is_stmt 1 view .LVU82
 296 010a 019B     		ldr	r3, [sp, #4]
 297 010c 002B     		cmp	r3, #0
 298 010e F9D1     		bne	.L14
 299              	.L12:
 371:PY32F0xx_HAL_Driver/Src/py32f0xx_hal_comp.c **** 
 300              		.loc 1 371 5 view .LVU83
 371:PY32F0xx_HAL_Driver/Src/py32f0xx_hal_comp.c **** 
 301              		.loc 1 371 17 is_stmt 0 view .LVU84
 302 0110 2D4B     		ldr	r3, .L33+4
 303 0112 9D42     		cmp	r5, r3
 304 0114 24D0     		beq	.L32
 371:PY32F0xx_HAL_Driver/Src/py32f0xx_hal_comp.c **** 
 305              		.loc 1 371 17 discriminator 2 view .LVU85
 306 0116 8023     		movs	r3, #128
 307 0118 DB02     		lsls	r3, r3, #11
 308              	.L15:
 309              	.LVL14:
 374:PY32F0xx_HAL_Driver/Src/py32f0xx_hal_comp.c ****     {
 310              		.loc 1 374 5 is_stmt 1 view .LVU86
 374:PY32F0xx_HAL_Driver/Src/py32f0xx_hal_comp.c ****     {
 311              		.loc 1 374 20 is_stmt 0 view .LVU87
 312 011a 226A     		ldr	r2, [r4, #32]
 374:PY32F0xx_HAL_Driver/Src/py32f0xx_hal_comp.c ****     {
 313              		.loc 1 374 7 view .LVU88
 314 011c 9107     		lsls	r1, r2, #30
 315 011e 38D0     		beq	.L16
 377:PY32F0xx_HAL_Driver/Src/py32f0xx_hal_comp.c ****       {
 316              		.loc 1 377 7 is_stmt 1 view .LVU89
 377:PY32F0xx_HAL_Driver/Src/py32f0xx_hal_comp.c ****       {
 317              		.loc 1 377 9 is_stmt 0 view .LVU90
 318 0120 D206     		lsls	r2, r2, #27
 319 0122 20D5     		bpl	.L17
 379:PY32F0xx_HAL_Driver/Src/py32f0xx_hal_comp.c ****       }
 320              		.loc 1 379 9 is_stmt 1 view .LVU91
 321              	.LVL15:
ARM GAS  /tmp/ccHJbOwl.s 			page 17


 322              	.LBB30:
 323              	.LBI30:
 324              		.file 2 "PY32F0xx_HAL_Driver/Inc/py32f0xx_ll_exti.h"
   1:PY32F0xx_HAL_Driver/Inc/py32f0xx_ll_exti.h **** /**
   2:PY32F0xx_HAL_Driver/Inc/py32f0xx_ll_exti.h ****   ******************************************************************************
   3:PY32F0xx_HAL_Driver/Inc/py32f0xx_ll_exti.h ****   * @file    py32f0xx_ll_exti.h
   4:PY32F0xx_HAL_Driver/Inc/py32f0xx_ll_exti.h ****   * @author  MCU Application Team
   5:PY32F0xx_HAL_Driver/Inc/py32f0xx_ll_exti.h ****   * @brief   Header file of RCC LL module.
   6:PY32F0xx_HAL_Driver/Inc/py32f0xx_ll_exti.h ****   ******************************************************************************
   7:PY32F0xx_HAL_Driver/Inc/py32f0xx_ll_exti.h ****   * @attention
   8:PY32F0xx_HAL_Driver/Inc/py32f0xx_ll_exti.h ****   *
   9:PY32F0xx_HAL_Driver/Inc/py32f0xx_ll_exti.h ****   * <h2><center>&copy; Copyright (c) Puya Semiconductor Co.
  10:PY32F0xx_HAL_Driver/Inc/py32f0xx_ll_exti.h ****   * All rights reserved.</center></h2>
  11:PY32F0xx_HAL_Driver/Inc/py32f0xx_ll_exti.h ****   *
  12:PY32F0xx_HAL_Driver/Inc/py32f0xx_ll_exti.h ****   * <h2><center>&copy; Copyright (c) 2016 STMicroelectronics.
  13:PY32F0xx_HAL_Driver/Inc/py32f0xx_ll_exti.h ****   * All rights reserved.</center></h2>
  14:PY32F0xx_HAL_Driver/Inc/py32f0xx_ll_exti.h ****   *
  15:PY32F0xx_HAL_Driver/Inc/py32f0xx_ll_exti.h ****   * This software component is licensed by ST under BSD 3-Clause license,
  16:PY32F0xx_HAL_Driver/Inc/py32f0xx_ll_exti.h ****   * the "License"; You may not use this file except in compliance with the
  17:PY32F0xx_HAL_Driver/Inc/py32f0xx_ll_exti.h ****   * License. You may obtain a copy of the License at:
  18:PY32F0xx_HAL_Driver/Inc/py32f0xx_ll_exti.h ****   *                        opensource.org/licenses/BSD-3-Clause
  19:PY32F0xx_HAL_Driver/Inc/py32f0xx_ll_exti.h ****   *
  20:PY32F0xx_HAL_Driver/Inc/py32f0xx_ll_exti.h ****   ******************************************************************************
  21:PY32F0xx_HAL_Driver/Inc/py32f0xx_ll_exti.h ****   */
  22:PY32F0xx_HAL_Driver/Inc/py32f0xx_ll_exti.h **** 
  23:PY32F0xx_HAL_Driver/Inc/py32f0xx_ll_exti.h **** /* Define to prevent recursive inclusion -------------------------------------*/
  24:PY32F0xx_HAL_Driver/Inc/py32f0xx_ll_exti.h **** #ifndef PY32F0XX_LL_EXTI_H
  25:PY32F0xx_HAL_Driver/Inc/py32f0xx_ll_exti.h **** #define PY32F0XX_LL_EXTI_H
  26:PY32F0xx_HAL_Driver/Inc/py32f0xx_ll_exti.h **** 
  27:PY32F0xx_HAL_Driver/Inc/py32f0xx_ll_exti.h **** #ifdef __cplusplus
  28:PY32F0xx_HAL_Driver/Inc/py32f0xx_ll_exti.h **** extern "C" {
  29:PY32F0xx_HAL_Driver/Inc/py32f0xx_ll_exti.h **** #endif
  30:PY32F0xx_HAL_Driver/Inc/py32f0xx_ll_exti.h **** 
  31:PY32F0xx_HAL_Driver/Inc/py32f0xx_ll_exti.h **** /* Includes ------------------------------------------------------------------*/
  32:PY32F0xx_HAL_Driver/Inc/py32f0xx_ll_exti.h **** #include "py32f0xx.h"
  33:PY32F0xx_HAL_Driver/Inc/py32f0xx_ll_exti.h **** 
  34:PY32F0xx_HAL_Driver/Inc/py32f0xx_ll_exti.h **** /** @addtogroup py32f0xx_LL_Driver
  35:PY32F0xx_HAL_Driver/Inc/py32f0xx_ll_exti.h ****   * @{
  36:PY32F0xx_HAL_Driver/Inc/py32f0xx_ll_exti.h ****   */
  37:PY32F0xx_HAL_Driver/Inc/py32f0xx_ll_exti.h **** 
  38:PY32F0xx_HAL_Driver/Inc/py32f0xx_ll_exti.h **** #if defined (EXTI)
  39:PY32F0xx_HAL_Driver/Inc/py32f0xx_ll_exti.h **** 
  40:PY32F0xx_HAL_Driver/Inc/py32f0xx_ll_exti.h **** /** @defgroup EXTI_LL EXTI
  41:PY32F0xx_HAL_Driver/Inc/py32f0xx_ll_exti.h ****   * @{
  42:PY32F0xx_HAL_Driver/Inc/py32f0xx_ll_exti.h ****   */
  43:PY32F0xx_HAL_Driver/Inc/py32f0xx_ll_exti.h **** 
  44:PY32F0xx_HAL_Driver/Inc/py32f0xx_ll_exti.h **** /* Private types -------------------------------------------------------------*/
  45:PY32F0xx_HAL_Driver/Inc/py32f0xx_ll_exti.h **** /* Private variables ---------------------------------------------------------*/
  46:PY32F0xx_HAL_Driver/Inc/py32f0xx_ll_exti.h **** /* Private constants ---------------------------------------------------------*/
  47:PY32F0xx_HAL_Driver/Inc/py32f0xx_ll_exti.h **** #define LL_EXTI_REGISTER_PINPOS_SHFT        8U   /*!< Define used to shift pin position in EXTICR r
  48:PY32F0xx_HAL_Driver/Inc/py32f0xx_ll_exti.h **** #define LL_EXTI_REGISTER_PINMASK_SHFT       16U  /*!< Define used to shift pin mask in EXTICR regis
  49:PY32F0xx_HAL_Driver/Inc/py32f0xx_ll_exti.h **** 
  50:PY32F0xx_HAL_Driver/Inc/py32f0xx_ll_exti.h **** /* Private Macros ------------------------------------------------------------*/
  51:PY32F0xx_HAL_Driver/Inc/py32f0xx_ll_exti.h **** #if defined(USE_FULL_LL_DRIVER)
  52:PY32F0xx_HAL_Driver/Inc/py32f0xx_ll_exti.h **** /** @defgroup EXTI_LL_Private_Macros EXTI Private Macros
  53:PY32F0xx_HAL_Driver/Inc/py32f0xx_ll_exti.h ****   * @{
  54:PY32F0xx_HAL_Driver/Inc/py32f0xx_ll_exti.h ****   */
ARM GAS  /tmp/ccHJbOwl.s 			page 18


  55:PY32F0xx_HAL_Driver/Inc/py32f0xx_ll_exti.h **** /**
  56:PY32F0xx_HAL_Driver/Inc/py32f0xx_ll_exti.h ****   * @}
  57:PY32F0xx_HAL_Driver/Inc/py32f0xx_ll_exti.h ****   */
  58:PY32F0xx_HAL_Driver/Inc/py32f0xx_ll_exti.h **** #endif /*USE_FULL_LL_DRIVER*/
  59:PY32F0xx_HAL_Driver/Inc/py32f0xx_ll_exti.h **** /* Exported types ------------------------------------------------------------*/
  60:PY32F0xx_HAL_Driver/Inc/py32f0xx_ll_exti.h **** #if defined(USE_FULL_LL_DRIVER)
  61:PY32F0xx_HAL_Driver/Inc/py32f0xx_ll_exti.h **** /** @defgroup EXTI_LL_ES_INIT EXTI Exported Init structure
  62:PY32F0xx_HAL_Driver/Inc/py32f0xx_ll_exti.h ****   * @{
  63:PY32F0xx_HAL_Driver/Inc/py32f0xx_ll_exti.h ****   */
  64:PY32F0xx_HAL_Driver/Inc/py32f0xx_ll_exti.h **** typedef struct
  65:PY32F0xx_HAL_Driver/Inc/py32f0xx_ll_exti.h **** {
  66:PY32F0xx_HAL_Driver/Inc/py32f0xx_ll_exti.h **** 
  67:PY32F0xx_HAL_Driver/Inc/py32f0xx_ll_exti.h ****   uint32_t Line;                /*!< Specifies the EXTI lines to be enabled or disabled for Lines
  68:PY32F0xx_HAL_Driver/Inc/py32f0xx_ll_exti.h ****                                      This parameter can be any combination of @ref EXTI_LL_EC_LINE 
  69:PY32F0xx_HAL_Driver/Inc/py32f0xx_ll_exti.h **** 
  70:PY32F0xx_HAL_Driver/Inc/py32f0xx_ll_exti.h ****   FunctionalState LineCommand;  /*!< Specifies the new state of the selected EXTI lines.
  71:PY32F0xx_HAL_Driver/Inc/py32f0xx_ll_exti.h ****                                      This parameter can be set either to ENABLE or DISABLE */
  72:PY32F0xx_HAL_Driver/Inc/py32f0xx_ll_exti.h **** 
  73:PY32F0xx_HAL_Driver/Inc/py32f0xx_ll_exti.h ****   uint8_t Mode;                 /*!< Specifies the mode for the EXTI lines.
  74:PY32F0xx_HAL_Driver/Inc/py32f0xx_ll_exti.h ****                                      This parameter can be a value of @ref EXTI_LL_EC_MODE. */
  75:PY32F0xx_HAL_Driver/Inc/py32f0xx_ll_exti.h **** 
  76:PY32F0xx_HAL_Driver/Inc/py32f0xx_ll_exti.h ****   uint8_t Trigger;              /*!< Specifies the trigger signal active edge for the EXTI lines.
  77:PY32F0xx_HAL_Driver/Inc/py32f0xx_ll_exti.h ****                                      This parameter can be a value of @ref EXTI_LL_EC_TRIGGER. */
  78:PY32F0xx_HAL_Driver/Inc/py32f0xx_ll_exti.h **** } LL_EXTI_InitTypeDef;
  79:PY32F0xx_HAL_Driver/Inc/py32f0xx_ll_exti.h **** 
  80:PY32F0xx_HAL_Driver/Inc/py32f0xx_ll_exti.h **** /**
  81:PY32F0xx_HAL_Driver/Inc/py32f0xx_ll_exti.h ****   * @}
  82:PY32F0xx_HAL_Driver/Inc/py32f0xx_ll_exti.h ****   */
  83:PY32F0xx_HAL_Driver/Inc/py32f0xx_ll_exti.h **** #endif /*USE_FULL_LL_DRIVER*/
  84:PY32F0xx_HAL_Driver/Inc/py32f0xx_ll_exti.h **** 
  85:PY32F0xx_HAL_Driver/Inc/py32f0xx_ll_exti.h **** /* Exported constants --------------------------------------------------------*/
  86:PY32F0xx_HAL_Driver/Inc/py32f0xx_ll_exti.h **** /** @defgroup EXTI_LL_Exported_Constants EXTI Exported Constants
  87:PY32F0xx_HAL_Driver/Inc/py32f0xx_ll_exti.h ****   * @{
  88:PY32F0xx_HAL_Driver/Inc/py32f0xx_ll_exti.h ****   */
  89:PY32F0xx_HAL_Driver/Inc/py32f0xx_ll_exti.h **** 
  90:PY32F0xx_HAL_Driver/Inc/py32f0xx_ll_exti.h **** /** @defgroup EXTI_LL_EC_LINE LINE
  91:PY32F0xx_HAL_Driver/Inc/py32f0xx_ll_exti.h ****   * @{
  92:PY32F0xx_HAL_Driver/Inc/py32f0xx_ll_exti.h ****   */
  93:PY32F0xx_HAL_Driver/Inc/py32f0xx_ll_exti.h **** #define LL_EXTI_LINE_0                 EXTI_IMR_IM0           /*!< Extended line 0 */
  94:PY32F0xx_HAL_Driver/Inc/py32f0xx_ll_exti.h **** #define LL_EXTI_LINE_1                 EXTI_IMR_IM1           /*!< Extended line 1 */
  95:PY32F0xx_HAL_Driver/Inc/py32f0xx_ll_exti.h **** #define LL_EXTI_LINE_2                 EXTI_IMR_IM2           /*!< Extended line 2 */
  96:PY32F0xx_HAL_Driver/Inc/py32f0xx_ll_exti.h **** #define LL_EXTI_LINE_3                 EXTI_IMR_IM3           /*!< Extended line 3 */
  97:PY32F0xx_HAL_Driver/Inc/py32f0xx_ll_exti.h **** #define LL_EXTI_LINE_4                 EXTI_IMR_IM4           /*!< Extended line 4 */
  98:PY32F0xx_HAL_Driver/Inc/py32f0xx_ll_exti.h **** #define LL_EXTI_LINE_5                 EXTI_IMR_IM5           /*!< Extended line 5 */
  99:PY32F0xx_HAL_Driver/Inc/py32f0xx_ll_exti.h **** #define LL_EXTI_LINE_6                 EXTI_IMR_IM6           /*!< Extended line 6 */
 100:PY32F0xx_HAL_Driver/Inc/py32f0xx_ll_exti.h **** #define LL_EXTI_LINE_7                 EXTI_IMR_IM7           /*!< Extended line 7 */
 101:PY32F0xx_HAL_Driver/Inc/py32f0xx_ll_exti.h **** #define LL_EXTI_LINE_8                 EXTI_IMR_IM8           /*!< Extended line 8 */
 102:PY32F0xx_HAL_Driver/Inc/py32f0xx_ll_exti.h **** #define LL_EXTI_LINE_9                 EXTI_IMR_IM9           /*!< Extended line 9 */
 103:PY32F0xx_HAL_Driver/Inc/py32f0xx_ll_exti.h **** #define LL_EXTI_LINE_10                EXTI_IMR_IM10          /*!< Extended line 10 */
 104:PY32F0xx_HAL_Driver/Inc/py32f0xx_ll_exti.h **** #define LL_EXTI_LINE_11                EXTI_IMR_IM11          /*!< Extended line 11 */
 105:PY32F0xx_HAL_Driver/Inc/py32f0xx_ll_exti.h **** #define LL_EXTI_LINE_12                EXTI_IMR_IM12          /*!< Extended line 12 */
 106:PY32F0xx_HAL_Driver/Inc/py32f0xx_ll_exti.h **** #define LL_EXTI_LINE_13                EXTI_IMR_IM13          /*!< Extended line 13 */
 107:PY32F0xx_HAL_Driver/Inc/py32f0xx_ll_exti.h **** #define LL_EXTI_LINE_14                EXTI_IMR_IM14          /*!< Extended line 14 */
 108:PY32F0xx_HAL_Driver/Inc/py32f0xx_ll_exti.h **** #define LL_EXTI_LINE_15                EXTI_IMR_IM15          /*!< Extended line 15 */
 109:PY32F0xx_HAL_Driver/Inc/py32f0xx_ll_exti.h **** #define LL_EXTI_LINE_16                EXTI_IMR_IM16          /*!< Extended line 16 */
 110:PY32F0xx_HAL_Driver/Inc/py32f0xx_ll_exti.h **** #define LL_EXTI_LINE_17                EXTI_IMR_IM17          /*!< Extended line 17 */
 111:PY32F0xx_HAL_Driver/Inc/py32f0xx_ll_exti.h **** #define LL_EXTI_LINE_18                EXTI_IMR_IM18          /*!< Extended line 18 */
ARM GAS  /tmp/ccHJbOwl.s 			page 19


 112:PY32F0xx_HAL_Driver/Inc/py32f0xx_ll_exti.h **** #define LL_EXTI_LINE_19                EXTI_IMR_IM19          /*!< Extended line 19 */
 113:PY32F0xx_HAL_Driver/Inc/py32f0xx_ll_exti.h **** #define LL_EXTI_LINE_29                EXTI_IMR_IM29          /*!< Extended line 29 */
 114:PY32F0xx_HAL_Driver/Inc/py32f0xx_ll_exti.h **** 
 115:PY32F0xx_HAL_Driver/Inc/py32f0xx_ll_exti.h **** #if defined(USE_FULL_LL_DRIVER)
 116:PY32F0xx_HAL_Driver/Inc/py32f0xx_ll_exti.h **** #define LL_EXTI_LINE_NONE              0x00000000U             /*!< None Extended line */
 117:PY32F0xx_HAL_Driver/Inc/py32f0xx_ll_exti.h **** #endif /*USE_FULL_LL_DRIVER*/
 118:PY32F0xx_HAL_Driver/Inc/py32f0xx_ll_exti.h **** 
 119:PY32F0xx_HAL_Driver/Inc/py32f0xx_ll_exti.h **** 
 120:PY32F0xx_HAL_Driver/Inc/py32f0xx_ll_exti.h **** /**
 121:PY32F0xx_HAL_Driver/Inc/py32f0xx_ll_exti.h ****   * @}
 122:PY32F0xx_HAL_Driver/Inc/py32f0xx_ll_exti.h ****   */
 123:PY32F0xx_HAL_Driver/Inc/py32f0xx_ll_exti.h **** #if defined(USE_FULL_LL_DRIVER)
 124:PY32F0xx_HAL_Driver/Inc/py32f0xx_ll_exti.h **** 
 125:PY32F0xx_HAL_Driver/Inc/py32f0xx_ll_exti.h **** /** @defgroup EXTI_LL_EC_MODE Mode
 126:PY32F0xx_HAL_Driver/Inc/py32f0xx_ll_exti.h ****   * @{
 127:PY32F0xx_HAL_Driver/Inc/py32f0xx_ll_exti.h ****   */
 128:PY32F0xx_HAL_Driver/Inc/py32f0xx_ll_exti.h **** #define LL_EXTI_MODE_IT                 ((uint8_t)0x00U) /*!< Interrupt Mode */
 129:PY32F0xx_HAL_Driver/Inc/py32f0xx_ll_exti.h **** #define LL_EXTI_MODE_EVENT              ((uint8_t)0x01U) /*!< Event Mode */
 130:PY32F0xx_HAL_Driver/Inc/py32f0xx_ll_exti.h **** #define LL_EXTI_MODE_IT_EVENT           ((uint8_t)0x02U) /*!< Interrupt & Event Mode */
 131:PY32F0xx_HAL_Driver/Inc/py32f0xx_ll_exti.h **** /**
 132:PY32F0xx_HAL_Driver/Inc/py32f0xx_ll_exti.h ****   * @}
 133:PY32F0xx_HAL_Driver/Inc/py32f0xx_ll_exti.h ****   */
 134:PY32F0xx_HAL_Driver/Inc/py32f0xx_ll_exti.h **** 
 135:PY32F0xx_HAL_Driver/Inc/py32f0xx_ll_exti.h **** /** @defgroup EXTI_LL_EC_TRIGGER Edge Trigger
 136:PY32F0xx_HAL_Driver/Inc/py32f0xx_ll_exti.h ****   * @{
 137:PY32F0xx_HAL_Driver/Inc/py32f0xx_ll_exti.h ****   */
 138:PY32F0xx_HAL_Driver/Inc/py32f0xx_ll_exti.h **** #define LL_EXTI_TRIGGER_NONE            ((uint8_t)0x00U) /*!< No Trigger Mode */
 139:PY32F0xx_HAL_Driver/Inc/py32f0xx_ll_exti.h **** #define LL_EXTI_TRIGGER_RISING          ((uint8_t)0x01U) /*!< Trigger Rising Mode */
 140:PY32F0xx_HAL_Driver/Inc/py32f0xx_ll_exti.h **** #define LL_EXTI_TRIGGER_FALLING         ((uint8_t)0x02U) /*!< Trigger Falling Mode */
 141:PY32F0xx_HAL_Driver/Inc/py32f0xx_ll_exti.h **** #define LL_EXTI_TRIGGER_RISING_FALLING  ((uint8_t)0x03U) /*!< Trigger Rising & Falling Mode */
 142:PY32F0xx_HAL_Driver/Inc/py32f0xx_ll_exti.h **** 
 143:PY32F0xx_HAL_Driver/Inc/py32f0xx_ll_exti.h **** /**
 144:PY32F0xx_HAL_Driver/Inc/py32f0xx_ll_exti.h ****   * @}
 145:PY32F0xx_HAL_Driver/Inc/py32f0xx_ll_exti.h ****   */
 146:PY32F0xx_HAL_Driver/Inc/py32f0xx_ll_exti.h **** 
 147:PY32F0xx_HAL_Driver/Inc/py32f0xx_ll_exti.h **** 
 148:PY32F0xx_HAL_Driver/Inc/py32f0xx_ll_exti.h **** #endif /*USE_FULL_LL_DRIVER*/
 149:PY32F0xx_HAL_Driver/Inc/py32f0xx_ll_exti.h **** 
 150:PY32F0xx_HAL_Driver/Inc/py32f0xx_ll_exti.h **** /** @defgroup EXTI_LL_EC_CONFIG_PORT EXTI CONFIG PORT
 151:PY32F0xx_HAL_Driver/Inc/py32f0xx_ll_exti.h ****   * @{
 152:PY32F0xx_HAL_Driver/Inc/py32f0xx_ll_exti.h ****   */
 153:PY32F0xx_HAL_Driver/Inc/py32f0xx_ll_exti.h **** #define LL_EXTI_CONFIG_PORTA               0x0U                        /*!< EXTI PORT A */
 154:PY32F0xx_HAL_Driver/Inc/py32f0xx_ll_exti.h **** #define LL_EXTI_CONFIG_PORTB               0x1U                        /*!< EXTI PORT B */
 155:PY32F0xx_HAL_Driver/Inc/py32f0xx_ll_exti.h **** #define LL_EXTI_CONFIG_PORTF               0x2U                        /*!< EXTI PORT F */
 156:PY32F0xx_HAL_Driver/Inc/py32f0xx_ll_exti.h **** /**
 157:PY32F0xx_HAL_Driver/Inc/py32f0xx_ll_exti.h ****   * @}
 158:PY32F0xx_HAL_Driver/Inc/py32f0xx_ll_exti.h ****   */
 159:PY32F0xx_HAL_Driver/Inc/py32f0xx_ll_exti.h **** 
 160:PY32F0xx_HAL_Driver/Inc/py32f0xx_ll_exti.h **** /** @defgroup EXTI_LL_EC_CONFIG_LINE EXTI CONFIG LINE
 161:PY32F0xx_HAL_Driver/Inc/py32f0xx_ll_exti.h ****   * @{
 162:PY32F0xx_HAL_Driver/Inc/py32f0xx_ll_exti.h ****   */
 163:PY32F0xx_HAL_Driver/Inc/py32f0xx_ll_exti.h **** #define LL_EXTI_CONFIG_LINE0               ((0x3U << LL_EXTI_REGISTER_PINMASK_SHFT) | ( 0U << LL_EX
 164:PY32F0xx_HAL_Driver/Inc/py32f0xx_ll_exti.h **** #define LL_EXTI_CONFIG_LINE1               ((0x3U << LL_EXTI_REGISTER_PINMASK_SHFT) | ( 8U << LL_EX
 165:PY32F0xx_HAL_Driver/Inc/py32f0xx_ll_exti.h **** #define LL_EXTI_CONFIG_LINE2               ((0x3U << LL_EXTI_REGISTER_PINMASK_SHFT) | (16U << LL_EX
 166:PY32F0xx_HAL_Driver/Inc/py32f0xx_ll_exti.h **** #define LL_EXTI_CONFIG_LINE3               ((0x3U << LL_EXTI_REGISTER_PINMASK_SHFT) | (24U << LL_EX
 167:PY32F0xx_HAL_Driver/Inc/py32f0xx_ll_exti.h **** #define LL_EXTI_CONFIG_LINE4               ((0x3U << LL_EXTI_REGISTER_PINMASK_SHFT) | ( 0U << LL_EX
 168:PY32F0xx_HAL_Driver/Inc/py32f0xx_ll_exti.h **** #define LL_EXTI_CONFIG_LINE5               ((0x1U << LL_EXTI_REGISTER_PINMASK_SHFT) | ( 8U << LL_EX
ARM GAS  /tmp/ccHJbOwl.s 			page 20


 169:PY32F0xx_HAL_Driver/Inc/py32f0xx_ll_exti.h **** #define LL_EXTI_CONFIG_LINE6               ((0x1U << LL_EXTI_REGISTER_PINMASK_SHFT) | (16U << LL_EX
 170:PY32F0xx_HAL_Driver/Inc/py32f0xx_ll_exti.h **** #define LL_EXTI_CONFIG_LINE7               ((0x1U << LL_EXTI_REGISTER_PINMASK_SHFT) | (24U << LL_EX
 171:PY32F0xx_HAL_Driver/Inc/py32f0xx_ll_exti.h **** #define LL_EXTI_CONFIG_LINE8               ((0x1U << LL_EXTI_REGISTER_PINMASK_SHFT) | ( 0U << LL_EX
 172:PY32F0xx_HAL_Driver/Inc/py32f0xx_ll_exti.h **** /**
 173:PY32F0xx_HAL_Driver/Inc/py32f0xx_ll_exti.h ****   * @}
 174:PY32F0xx_HAL_Driver/Inc/py32f0xx_ll_exti.h ****   */
 175:PY32F0xx_HAL_Driver/Inc/py32f0xx_ll_exti.h **** 
 176:PY32F0xx_HAL_Driver/Inc/py32f0xx_ll_exti.h **** 
 177:PY32F0xx_HAL_Driver/Inc/py32f0xx_ll_exti.h **** /**
 178:PY32F0xx_HAL_Driver/Inc/py32f0xx_ll_exti.h ****   * @}
 179:PY32F0xx_HAL_Driver/Inc/py32f0xx_ll_exti.h ****   */
 180:PY32F0xx_HAL_Driver/Inc/py32f0xx_ll_exti.h **** 
 181:PY32F0xx_HAL_Driver/Inc/py32f0xx_ll_exti.h **** /* Exported macro ------------------------------------------------------------*/
 182:PY32F0xx_HAL_Driver/Inc/py32f0xx_ll_exti.h **** /** @defgroup EXTI_LL_Exported_Macros EXTI Exported Macros
 183:PY32F0xx_HAL_Driver/Inc/py32f0xx_ll_exti.h ****   * @{
 184:PY32F0xx_HAL_Driver/Inc/py32f0xx_ll_exti.h ****   */
 185:PY32F0xx_HAL_Driver/Inc/py32f0xx_ll_exti.h **** 
 186:PY32F0xx_HAL_Driver/Inc/py32f0xx_ll_exti.h **** /** @defgroup EXTI_LL_EM_WRITE_READ Common Write and read registers Macros
 187:PY32F0xx_HAL_Driver/Inc/py32f0xx_ll_exti.h ****   * @{
 188:PY32F0xx_HAL_Driver/Inc/py32f0xx_ll_exti.h ****   */
 189:PY32F0xx_HAL_Driver/Inc/py32f0xx_ll_exti.h **** 
 190:PY32F0xx_HAL_Driver/Inc/py32f0xx_ll_exti.h **** /**
 191:PY32F0xx_HAL_Driver/Inc/py32f0xx_ll_exti.h ****   * @brief  Write a value in EXTI register
 192:PY32F0xx_HAL_Driver/Inc/py32f0xx_ll_exti.h ****   * @param  __REG__ Register to be written
 193:PY32F0xx_HAL_Driver/Inc/py32f0xx_ll_exti.h ****   * @param  __VALUE__ Value to be written in the register
 194:PY32F0xx_HAL_Driver/Inc/py32f0xx_ll_exti.h ****   * @retval None
 195:PY32F0xx_HAL_Driver/Inc/py32f0xx_ll_exti.h ****   */
 196:PY32F0xx_HAL_Driver/Inc/py32f0xx_ll_exti.h **** #define LL_EXTI_WriteReg(__REG__, __VALUE__) WRITE_REG(EXTI->__REG__, (__VALUE__))
 197:PY32F0xx_HAL_Driver/Inc/py32f0xx_ll_exti.h **** 
 198:PY32F0xx_HAL_Driver/Inc/py32f0xx_ll_exti.h **** /**
 199:PY32F0xx_HAL_Driver/Inc/py32f0xx_ll_exti.h ****   * @brief  Read a value in EXTI register
 200:PY32F0xx_HAL_Driver/Inc/py32f0xx_ll_exti.h ****   * @param  __REG__ Register to be read
 201:PY32F0xx_HAL_Driver/Inc/py32f0xx_ll_exti.h ****   * @retval Register value
 202:PY32F0xx_HAL_Driver/Inc/py32f0xx_ll_exti.h ****   */
 203:PY32F0xx_HAL_Driver/Inc/py32f0xx_ll_exti.h **** #define LL_EXTI_ReadReg(__REG__) READ_REG(EXTI->__REG__)
 204:PY32F0xx_HAL_Driver/Inc/py32f0xx_ll_exti.h **** /**
 205:PY32F0xx_HAL_Driver/Inc/py32f0xx_ll_exti.h ****   * @}
 206:PY32F0xx_HAL_Driver/Inc/py32f0xx_ll_exti.h ****   */
 207:PY32F0xx_HAL_Driver/Inc/py32f0xx_ll_exti.h **** 
 208:PY32F0xx_HAL_Driver/Inc/py32f0xx_ll_exti.h **** 
 209:PY32F0xx_HAL_Driver/Inc/py32f0xx_ll_exti.h **** /**
 210:PY32F0xx_HAL_Driver/Inc/py32f0xx_ll_exti.h ****   * @}
 211:PY32F0xx_HAL_Driver/Inc/py32f0xx_ll_exti.h ****   */
 212:PY32F0xx_HAL_Driver/Inc/py32f0xx_ll_exti.h **** 
 213:PY32F0xx_HAL_Driver/Inc/py32f0xx_ll_exti.h **** 
 214:PY32F0xx_HAL_Driver/Inc/py32f0xx_ll_exti.h **** 
 215:PY32F0xx_HAL_Driver/Inc/py32f0xx_ll_exti.h **** /* Exported functions --------------------------------------------------------*/
 216:PY32F0xx_HAL_Driver/Inc/py32f0xx_ll_exti.h **** /** @defgroup EXTI_LL_Exported_Functions EXTI Exported Functions
 217:PY32F0xx_HAL_Driver/Inc/py32f0xx_ll_exti.h ****  * @{
 218:PY32F0xx_HAL_Driver/Inc/py32f0xx_ll_exti.h ****  */
 219:PY32F0xx_HAL_Driver/Inc/py32f0xx_ll_exti.h **** /** @defgroup EXTI_LL_EF_IT_Management IT_Management
 220:PY32F0xx_HAL_Driver/Inc/py32f0xx_ll_exti.h ****   * @{
 221:PY32F0xx_HAL_Driver/Inc/py32f0xx_ll_exti.h ****   */
 222:PY32F0xx_HAL_Driver/Inc/py32f0xx_ll_exti.h **** 
 223:PY32F0xx_HAL_Driver/Inc/py32f0xx_ll_exti.h **** /**
 224:PY32F0xx_HAL_Driver/Inc/py32f0xx_ll_exti.h ****   * @brief  Enable ExtiLine Interrupt request for Lines
 225:PY32F0xx_HAL_Driver/Inc/py32f0xx_ll_exti.h ****   * @param  ExtiLine This parameter can be a combination of the following values:
ARM GAS  /tmp/ccHJbOwl.s 			page 21


 226:PY32F0xx_HAL_Driver/Inc/py32f0xx_ll_exti.h ****   *         @arg @ref LL_EXTI_LINE_0
 227:PY32F0xx_HAL_Driver/Inc/py32f0xx_ll_exti.h ****   *         @arg @ref LL_EXTI_LINE_1
 228:PY32F0xx_HAL_Driver/Inc/py32f0xx_ll_exti.h ****   *         @arg @ref LL_EXTI_LINE_2
 229:PY32F0xx_HAL_Driver/Inc/py32f0xx_ll_exti.h ****   *         @arg @ref LL_EXTI_LINE_3
 230:PY32F0xx_HAL_Driver/Inc/py32f0xx_ll_exti.h ****   *         @arg @ref LL_EXTI_LINE_4
 231:PY32F0xx_HAL_Driver/Inc/py32f0xx_ll_exti.h ****   *         @arg @ref LL_EXTI_LINE_5
 232:PY32F0xx_HAL_Driver/Inc/py32f0xx_ll_exti.h ****   *         @arg @ref LL_EXTI_LINE_6
 233:PY32F0xx_HAL_Driver/Inc/py32f0xx_ll_exti.h ****   *         @arg @ref LL_EXTI_LINE_7
 234:PY32F0xx_HAL_Driver/Inc/py32f0xx_ll_exti.h ****   *         @arg @ref LL_EXTI_LINE_8
 235:PY32F0xx_HAL_Driver/Inc/py32f0xx_ll_exti.h ****   *         @arg @ref LL_EXTI_LINE_9
 236:PY32F0xx_HAL_Driver/Inc/py32f0xx_ll_exti.h ****   *         @arg @ref LL_EXTI_LINE_10
 237:PY32F0xx_HAL_Driver/Inc/py32f0xx_ll_exti.h ****   *         @arg @ref LL_EXTI_LINE_11
 238:PY32F0xx_HAL_Driver/Inc/py32f0xx_ll_exti.h ****   *         @arg @ref LL_EXTI_LINE_12
 239:PY32F0xx_HAL_Driver/Inc/py32f0xx_ll_exti.h ****   *         @arg @ref LL_EXTI_LINE_13
 240:PY32F0xx_HAL_Driver/Inc/py32f0xx_ll_exti.h ****   *         @arg @ref LL_EXTI_LINE_14
 241:PY32F0xx_HAL_Driver/Inc/py32f0xx_ll_exti.h ****   *         @arg @ref LL_EXTI_LINE_15
 242:PY32F0xx_HAL_Driver/Inc/py32f0xx_ll_exti.h ****   *         @arg @ref LL_EXTI_LINE_16
 243:PY32F0xx_HAL_Driver/Inc/py32f0xx_ll_exti.h ****   *         @arg @ref LL_EXTI_LINE_17
 244:PY32F0xx_HAL_Driver/Inc/py32f0xx_ll_exti.h ****   *         @arg @ref LL_EXTI_LINE_18
 245:PY32F0xx_HAL_Driver/Inc/py32f0xx_ll_exti.h ****   *         @arg @ref LL_EXTI_LINE_19
 246:PY32F0xx_HAL_Driver/Inc/py32f0xx_ll_exti.h ****   *         @arg @ref LL_EXTI_LINE_29
 247:PY32F0xx_HAL_Driver/Inc/py32f0xx_ll_exti.h ****   * @note   Please check each device line mapping for EXTI Line availability
 248:PY32F0xx_HAL_Driver/Inc/py32f0xx_ll_exti.h ****   * @retval None
 249:PY32F0xx_HAL_Driver/Inc/py32f0xx_ll_exti.h ****   */
 250:PY32F0xx_HAL_Driver/Inc/py32f0xx_ll_exti.h **** __STATIC_INLINE void LL_EXTI_EnableIT(uint32_t ExtiLine)
 251:PY32F0xx_HAL_Driver/Inc/py32f0xx_ll_exti.h **** {
 252:PY32F0xx_HAL_Driver/Inc/py32f0xx_ll_exti.h ****   SET_BIT(EXTI->IMR, ExtiLine);
 253:PY32F0xx_HAL_Driver/Inc/py32f0xx_ll_exti.h **** }
 254:PY32F0xx_HAL_Driver/Inc/py32f0xx_ll_exti.h **** 
 255:PY32F0xx_HAL_Driver/Inc/py32f0xx_ll_exti.h **** /**
 256:PY32F0xx_HAL_Driver/Inc/py32f0xx_ll_exti.h ****   * @brief  Disable ExtiLine Interrupt request for Lines
 257:PY32F0xx_HAL_Driver/Inc/py32f0xx_ll_exti.h ****   * @param  ExtiLine This parameter can be a combination of the following values:
 258:PY32F0xx_HAL_Driver/Inc/py32f0xx_ll_exti.h ****   *         @arg @ref LL_EXTI_LINE_0
 259:PY32F0xx_HAL_Driver/Inc/py32f0xx_ll_exti.h ****   *         @arg @ref LL_EXTI_LINE_1
 260:PY32F0xx_HAL_Driver/Inc/py32f0xx_ll_exti.h ****   *         @arg @ref LL_EXTI_LINE_2
 261:PY32F0xx_HAL_Driver/Inc/py32f0xx_ll_exti.h ****   *         @arg @ref LL_EXTI_LINE_3
 262:PY32F0xx_HAL_Driver/Inc/py32f0xx_ll_exti.h ****   *         @arg @ref LL_EXTI_LINE_4
 263:PY32F0xx_HAL_Driver/Inc/py32f0xx_ll_exti.h ****   *         @arg @ref LL_EXTI_LINE_5
 264:PY32F0xx_HAL_Driver/Inc/py32f0xx_ll_exti.h ****   *         @arg @ref LL_EXTI_LINE_6
 265:PY32F0xx_HAL_Driver/Inc/py32f0xx_ll_exti.h ****   *         @arg @ref LL_EXTI_LINE_7
 266:PY32F0xx_HAL_Driver/Inc/py32f0xx_ll_exti.h ****   *         @arg @ref LL_EXTI_LINE_8
 267:PY32F0xx_HAL_Driver/Inc/py32f0xx_ll_exti.h ****   *         @arg @ref LL_EXTI_LINE_9
 268:PY32F0xx_HAL_Driver/Inc/py32f0xx_ll_exti.h ****   *         @arg @ref LL_EXTI_LINE_10
 269:PY32F0xx_HAL_Driver/Inc/py32f0xx_ll_exti.h ****   *         @arg @ref LL_EXTI_LINE_11
 270:PY32F0xx_HAL_Driver/Inc/py32f0xx_ll_exti.h ****   *         @arg @ref LL_EXTI_LINE_12
 271:PY32F0xx_HAL_Driver/Inc/py32f0xx_ll_exti.h ****   *         @arg @ref LL_EXTI_LINE_13
 272:PY32F0xx_HAL_Driver/Inc/py32f0xx_ll_exti.h ****   *         @arg @ref LL_EXTI_LINE_14
 273:PY32F0xx_HAL_Driver/Inc/py32f0xx_ll_exti.h ****   *         @arg @ref LL_EXTI_LINE_15
 274:PY32F0xx_HAL_Driver/Inc/py32f0xx_ll_exti.h ****   *         @arg @ref LL_EXTI_LINE_16
 275:PY32F0xx_HAL_Driver/Inc/py32f0xx_ll_exti.h ****   *         @arg @ref LL_EXTI_LINE_17
 276:PY32F0xx_HAL_Driver/Inc/py32f0xx_ll_exti.h ****   *         @arg @ref LL_EXTI_LINE_18
 277:PY32F0xx_HAL_Driver/Inc/py32f0xx_ll_exti.h ****   *         @arg @ref LL_EXTI_LINE_19
 278:PY32F0xx_HAL_Driver/Inc/py32f0xx_ll_exti.h ****   *         @arg @ref LL_EXTI_LINE_29
 279:PY32F0xx_HAL_Driver/Inc/py32f0xx_ll_exti.h ****   * @note   Please check each device line mapping for EXTI Line availability
 280:PY32F0xx_HAL_Driver/Inc/py32f0xx_ll_exti.h ****   * @retval None
 281:PY32F0xx_HAL_Driver/Inc/py32f0xx_ll_exti.h ****   */
 282:PY32F0xx_HAL_Driver/Inc/py32f0xx_ll_exti.h **** __STATIC_INLINE void LL_EXTI_DisableIT(uint32_t ExtiLine)
ARM GAS  /tmp/ccHJbOwl.s 			page 22


 283:PY32F0xx_HAL_Driver/Inc/py32f0xx_ll_exti.h **** {
 284:PY32F0xx_HAL_Driver/Inc/py32f0xx_ll_exti.h ****   CLEAR_BIT(EXTI->IMR, ExtiLine);
 285:PY32F0xx_HAL_Driver/Inc/py32f0xx_ll_exti.h **** }
 286:PY32F0xx_HAL_Driver/Inc/py32f0xx_ll_exti.h **** 
 287:PY32F0xx_HAL_Driver/Inc/py32f0xx_ll_exti.h **** /**
 288:PY32F0xx_HAL_Driver/Inc/py32f0xx_ll_exti.h ****   * @brief  Indicate if ExtiLine Interrupt request is enabled for Lines
 289:PY32F0xx_HAL_Driver/Inc/py32f0xx_ll_exti.h ****   *       Bits are set automatically at Power on.
 290:PY32F0xx_HAL_Driver/Inc/py32f0xx_ll_exti.h ****   * @rmtoll IMR1         IMx           LL_EXTI_IsEnabledIT_0_31
 291:PY32F0xx_HAL_Driver/Inc/py32f0xx_ll_exti.h ****   * @param  ExtiLine This parameter can be a combination of the following values:
 292:PY32F0xx_HAL_Driver/Inc/py32f0xx_ll_exti.h ****   *         @arg @ref LL_EXTI_LINE_0
 293:PY32F0xx_HAL_Driver/Inc/py32f0xx_ll_exti.h ****   *         @arg @ref LL_EXTI_LINE_1
 294:PY32F0xx_HAL_Driver/Inc/py32f0xx_ll_exti.h ****   *         @arg @ref LL_EXTI_LINE_2
 295:PY32F0xx_HAL_Driver/Inc/py32f0xx_ll_exti.h ****   *         @arg @ref LL_EXTI_LINE_3
 296:PY32F0xx_HAL_Driver/Inc/py32f0xx_ll_exti.h ****   *         @arg @ref LL_EXTI_LINE_4
 297:PY32F0xx_HAL_Driver/Inc/py32f0xx_ll_exti.h ****   *         @arg @ref LL_EXTI_LINE_5
 298:PY32F0xx_HAL_Driver/Inc/py32f0xx_ll_exti.h ****   *         @arg @ref LL_EXTI_LINE_6
 299:PY32F0xx_HAL_Driver/Inc/py32f0xx_ll_exti.h ****   *         @arg @ref LL_EXTI_LINE_7
 300:PY32F0xx_HAL_Driver/Inc/py32f0xx_ll_exti.h ****   *         @arg @ref LL_EXTI_LINE_8
 301:PY32F0xx_HAL_Driver/Inc/py32f0xx_ll_exti.h ****   *         @arg @ref LL_EXTI_LINE_9
 302:PY32F0xx_HAL_Driver/Inc/py32f0xx_ll_exti.h ****   *         @arg @ref LL_EXTI_LINE_10
 303:PY32F0xx_HAL_Driver/Inc/py32f0xx_ll_exti.h ****   *         @arg @ref LL_EXTI_LINE_11
 304:PY32F0xx_HAL_Driver/Inc/py32f0xx_ll_exti.h ****   *         @arg @ref LL_EXTI_LINE_12
 305:PY32F0xx_HAL_Driver/Inc/py32f0xx_ll_exti.h ****   *         @arg @ref LL_EXTI_LINE_13
 306:PY32F0xx_HAL_Driver/Inc/py32f0xx_ll_exti.h ****   *         @arg @ref LL_EXTI_LINE_14
 307:PY32F0xx_HAL_Driver/Inc/py32f0xx_ll_exti.h ****   *         @arg @ref LL_EXTI_LINE_15
 308:PY32F0xx_HAL_Driver/Inc/py32f0xx_ll_exti.h ****   *         @arg @ref LL_EXTI_LINE_16
 309:PY32F0xx_HAL_Driver/Inc/py32f0xx_ll_exti.h ****   *         @arg @ref LL_EXTI_LINE_17
 310:PY32F0xx_HAL_Driver/Inc/py32f0xx_ll_exti.h ****   *         @arg @ref LL_EXTI_LINE_18
 311:PY32F0xx_HAL_Driver/Inc/py32f0xx_ll_exti.h ****   *         @arg @ref LL_EXTI_LINE_19
 312:PY32F0xx_HAL_Driver/Inc/py32f0xx_ll_exti.h ****   *         @arg @ref LL_EXTI_LINE_29
 313:PY32F0xx_HAL_Driver/Inc/py32f0xx_ll_exti.h ****   * @note   Please check each device line mapping for EXTI Line availability
 314:PY32F0xx_HAL_Driver/Inc/py32f0xx_ll_exti.h ****   * @retval State of bit (1 or 0).
 315:PY32F0xx_HAL_Driver/Inc/py32f0xx_ll_exti.h ****   */
 316:PY32F0xx_HAL_Driver/Inc/py32f0xx_ll_exti.h **** __STATIC_INLINE uint32_t LL_EXTI_IsEnabledIT(uint32_t ExtiLine)
 317:PY32F0xx_HAL_Driver/Inc/py32f0xx_ll_exti.h **** {
 318:PY32F0xx_HAL_Driver/Inc/py32f0xx_ll_exti.h ****   return (READ_BIT(EXTI->IMR, ExtiLine) == (ExtiLine));
 319:PY32F0xx_HAL_Driver/Inc/py32f0xx_ll_exti.h **** }
 320:PY32F0xx_HAL_Driver/Inc/py32f0xx_ll_exti.h **** 
 321:PY32F0xx_HAL_Driver/Inc/py32f0xx_ll_exti.h **** /**
 322:PY32F0xx_HAL_Driver/Inc/py32f0xx_ll_exti.h ****   * @}
 323:PY32F0xx_HAL_Driver/Inc/py32f0xx_ll_exti.h ****   */
 324:PY32F0xx_HAL_Driver/Inc/py32f0xx_ll_exti.h **** 
 325:PY32F0xx_HAL_Driver/Inc/py32f0xx_ll_exti.h **** /** @defgroup EXTI_LL_EF_Event_Management Event_Management
 326:PY32F0xx_HAL_Driver/Inc/py32f0xx_ll_exti.h ****   * @{
 327:PY32F0xx_HAL_Driver/Inc/py32f0xx_ll_exti.h ****   */
 328:PY32F0xx_HAL_Driver/Inc/py32f0xx_ll_exti.h **** 
 329:PY32F0xx_HAL_Driver/Inc/py32f0xx_ll_exti.h **** /**
 330:PY32F0xx_HAL_Driver/Inc/py32f0xx_ll_exti.h ****   * @brief  Enable ExtiLine Event request for Lines
 331:PY32F0xx_HAL_Driver/Inc/py32f0xx_ll_exti.h ****   * @param  ExtiLine This parameter can be a combination of the following values:
 332:PY32F0xx_HAL_Driver/Inc/py32f0xx_ll_exti.h ****   *         @arg @ref LL_EXTI_LINE_0
 333:PY32F0xx_HAL_Driver/Inc/py32f0xx_ll_exti.h ****   *         @arg @ref LL_EXTI_LINE_1
 334:PY32F0xx_HAL_Driver/Inc/py32f0xx_ll_exti.h ****   *         @arg @ref LL_EXTI_LINE_2
 335:PY32F0xx_HAL_Driver/Inc/py32f0xx_ll_exti.h ****   *         @arg @ref LL_EXTI_LINE_3
 336:PY32F0xx_HAL_Driver/Inc/py32f0xx_ll_exti.h ****   *         @arg @ref LL_EXTI_LINE_4
 337:PY32F0xx_HAL_Driver/Inc/py32f0xx_ll_exti.h ****   *         @arg @ref LL_EXTI_LINE_5
 338:PY32F0xx_HAL_Driver/Inc/py32f0xx_ll_exti.h ****   *         @arg @ref LL_EXTI_LINE_6
 339:PY32F0xx_HAL_Driver/Inc/py32f0xx_ll_exti.h ****   *         @arg @ref LL_EXTI_LINE_7
ARM GAS  /tmp/ccHJbOwl.s 			page 23


 340:PY32F0xx_HAL_Driver/Inc/py32f0xx_ll_exti.h ****   *         @arg @ref LL_EXTI_LINE_8
 341:PY32F0xx_HAL_Driver/Inc/py32f0xx_ll_exti.h ****   *         @arg @ref LL_EXTI_LINE_9
 342:PY32F0xx_HAL_Driver/Inc/py32f0xx_ll_exti.h ****   *         @arg @ref LL_EXTI_LINE_10
 343:PY32F0xx_HAL_Driver/Inc/py32f0xx_ll_exti.h ****   *         @arg @ref LL_EXTI_LINE_11
 344:PY32F0xx_HAL_Driver/Inc/py32f0xx_ll_exti.h ****   *         @arg @ref LL_EXTI_LINE_12
 345:PY32F0xx_HAL_Driver/Inc/py32f0xx_ll_exti.h ****   *         @arg @ref LL_EXTI_LINE_13
 346:PY32F0xx_HAL_Driver/Inc/py32f0xx_ll_exti.h ****   *         @arg @ref LL_EXTI_LINE_14
 347:PY32F0xx_HAL_Driver/Inc/py32f0xx_ll_exti.h ****   *         @arg @ref LL_EXTI_LINE_15
 348:PY32F0xx_HAL_Driver/Inc/py32f0xx_ll_exti.h ****   *         @arg @ref LL_EXTI_LINE_16
 349:PY32F0xx_HAL_Driver/Inc/py32f0xx_ll_exti.h ****   *         @arg @ref LL_EXTI_LINE_17
 350:PY32F0xx_HAL_Driver/Inc/py32f0xx_ll_exti.h ****   *         @arg @ref LL_EXTI_LINE_18
 351:PY32F0xx_HAL_Driver/Inc/py32f0xx_ll_exti.h ****   *         @arg @ref LL_EXTI_LINE_19
 352:PY32F0xx_HAL_Driver/Inc/py32f0xx_ll_exti.h ****   *         @arg @ref LL_EXTI_LINE_29
 353:PY32F0xx_HAL_Driver/Inc/py32f0xx_ll_exti.h ****   * @note   Please check each device line mapping for EXTI Line availability
 354:PY32F0xx_HAL_Driver/Inc/py32f0xx_ll_exti.h ****   * @retval None
 355:PY32F0xx_HAL_Driver/Inc/py32f0xx_ll_exti.h ****   */
 356:PY32F0xx_HAL_Driver/Inc/py32f0xx_ll_exti.h **** __STATIC_INLINE void LL_EXTI_EnableEvent(uint32_t ExtiLine)
 357:PY32F0xx_HAL_Driver/Inc/py32f0xx_ll_exti.h **** {
 358:PY32F0xx_HAL_Driver/Inc/py32f0xx_ll_exti.h ****   SET_BIT(EXTI->EMR, ExtiLine);
 359:PY32F0xx_HAL_Driver/Inc/py32f0xx_ll_exti.h **** 
 360:PY32F0xx_HAL_Driver/Inc/py32f0xx_ll_exti.h **** }
 361:PY32F0xx_HAL_Driver/Inc/py32f0xx_ll_exti.h **** /**
 362:PY32F0xx_HAL_Driver/Inc/py32f0xx_ll_exti.h ****   * @brief  Disable ExtiLine Event request for Lines
 363:PY32F0xx_HAL_Driver/Inc/py32f0xx_ll_exti.h ****   * @param  ExtiLine This parameter can be a combination of the following values:
 364:PY32F0xx_HAL_Driver/Inc/py32f0xx_ll_exti.h ****   *         @arg @ref LL_EXTI_LINE_0
 365:PY32F0xx_HAL_Driver/Inc/py32f0xx_ll_exti.h ****   *         @arg @ref LL_EXTI_LINE_1
 366:PY32F0xx_HAL_Driver/Inc/py32f0xx_ll_exti.h ****   *         @arg @ref LL_EXTI_LINE_2
 367:PY32F0xx_HAL_Driver/Inc/py32f0xx_ll_exti.h ****   *         @arg @ref LL_EXTI_LINE_3
 368:PY32F0xx_HAL_Driver/Inc/py32f0xx_ll_exti.h ****   *         @arg @ref LL_EXTI_LINE_4
 369:PY32F0xx_HAL_Driver/Inc/py32f0xx_ll_exti.h ****   *         @arg @ref LL_EXTI_LINE_5
 370:PY32F0xx_HAL_Driver/Inc/py32f0xx_ll_exti.h ****   *         @arg @ref LL_EXTI_LINE_6
 371:PY32F0xx_HAL_Driver/Inc/py32f0xx_ll_exti.h ****   *         @arg @ref LL_EXTI_LINE_7
 372:PY32F0xx_HAL_Driver/Inc/py32f0xx_ll_exti.h ****   *         @arg @ref LL_EXTI_LINE_8
 373:PY32F0xx_HAL_Driver/Inc/py32f0xx_ll_exti.h ****   *         @arg @ref LL_EXTI_LINE_9
 374:PY32F0xx_HAL_Driver/Inc/py32f0xx_ll_exti.h ****   *         @arg @ref LL_EXTI_LINE_10
 375:PY32F0xx_HAL_Driver/Inc/py32f0xx_ll_exti.h ****   *         @arg @ref LL_EXTI_LINE_11
 376:PY32F0xx_HAL_Driver/Inc/py32f0xx_ll_exti.h ****   *         @arg @ref LL_EXTI_LINE_12
 377:PY32F0xx_HAL_Driver/Inc/py32f0xx_ll_exti.h ****   *         @arg @ref LL_EXTI_LINE_13
 378:PY32F0xx_HAL_Driver/Inc/py32f0xx_ll_exti.h ****   *         @arg @ref LL_EXTI_LINE_14
 379:PY32F0xx_HAL_Driver/Inc/py32f0xx_ll_exti.h ****   *         @arg @ref LL_EXTI_LINE_15
 380:PY32F0xx_HAL_Driver/Inc/py32f0xx_ll_exti.h ****   *         @arg @ref LL_EXTI_LINE_16
 381:PY32F0xx_HAL_Driver/Inc/py32f0xx_ll_exti.h ****   *         @arg @ref LL_EXTI_LINE_17
 382:PY32F0xx_HAL_Driver/Inc/py32f0xx_ll_exti.h ****   *         @arg @ref LL_EXTI_LINE_18
 383:PY32F0xx_HAL_Driver/Inc/py32f0xx_ll_exti.h ****   *         @arg @ref LL_EXTI_LINE_19
 384:PY32F0xx_HAL_Driver/Inc/py32f0xx_ll_exti.h ****   *         @arg @ref LL_EXTI_LINE_29
 385:PY32F0xx_HAL_Driver/Inc/py32f0xx_ll_exti.h ****   * @note   Please check each device line mapping for EXTI Line availability
 386:PY32F0xx_HAL_Driver/Inc/py32f0xx_ll_exti.h ****   * @retval None
 387:PY32F0xx_HAL_Driver/Inc/py32f0xx_ll_exti.h ****   */
 388:PY32F0xx_HAL_Driver/Inc/py32f0xx_ll_exti.h **** __STATIC_INLINE void LL_EXTI_DisableEvent(uint32_t ExtiLine)
 389:PY32F0xx_HAL_Driver/Inc/py32f0xx_ll_exti.h **** {
 390:PY32F0xx_HAL_Driver/Inc/py32f0xx_ll_exti.h ****   CLEAR_BIT(EXTI->EMR, ExtiLine);
 391:PY32F0xx_HAL_Driver/Inc/py32f0xx_ll_exti.h **** }
 392:PY32F0xx_HAL_Driver/Inc/py32f0xx_ll_exti.h **** 
 393:PY32F0xx_HAL_Driver/Inc/py32f0xx_ll_exti.h **** /**
 394:PY32F0xx_HAL_Driver/Inc/py32f0xx_ll_exti.h ****   * @brief  Indicate if ExtiLine Event request is enabled for Lines
 395:PY32F0xx_HAL_Driver/Inc/py32f0xx_ll_exti.h ****   * @param  ExtiLine This parameter can be a combination of the following values:
 396:PY32F0xx_HAL_Driver/Inc/py32f0xx_ll_exti.h ****   *         @arg @ref LL_EXTI_LINE_0
ARM GAS  /tmp/ccHJbOwl.s 			page 24


 397:PY32F0xx_HAL_Driver/Inc/py32f0xx_ll_exti.h ****   *         @arg @ref LL_EXTI_LINE_1
 398:PY32F0xx_HAL_Driver/Inc/py32f0xx_ll_exti.h ****   *         @arg @ref LL_EXTI_LINE_2
 399:PY32F0xx_HAL_Driver/Inc/py32f0xx_ll_exti.h ****   *         @arg @ref LL_EXTI_LINE_3
 400:PY32F0xx_HAL_Driver/Inc/py32f0xx_ll_exti.h ****   *         @arg @ref LL_EXTI_LINE_4
 401:PY32F0xx_HAL_Driver/Inc/py32f0xx_ll_exti.h ****   *         @arg @ref LL_EXTI_LINE_5
 402:PY32F0xx_HAL_Driver/Inc/py32f0xx_ll_exti.h ****   *         @arg @ref LL_EXTI_LINE_6
 403:PY32F0xx_HAL_Driver/Inc/py32f0xx_ll_exti.h ****   *         @arg @ref LL_EXTI_LINE_7
 404:PY32F0xx_HAL_Driver/Inc/py32f0xx_ll_exti.h ****   *         @arg @ref LL_EXTI_LINE_8
 405:PY32F0xx_HAL_Driver/Inc/py32f0xx_ll_exti.h ****   *         @arg @ref LL_EXTI_LINE_9
 406:PY32F0xx_HAL_Driver/Inc/py32f0xx_ll_exti.h ****   *         @arg @ref LL_EXTI_LINE_10
 407:PY32F0xx_HAL_Driver/Inc/py32f0xx_ll_exti.h ****   *         @arg @ref LL_EXTI_LINE_11
 408:PY32F0xx_HAL_Driver/Inc/py32f0xx_ll_exti.h ****   *         @arg @ref LL_EXTI_LINE_12
 409:PY32F0xx_HAL_Driver/Inc/py32f0xx_ll_exti.h ****   *         @arg @ref LL_EXTI_LINE_13
 410:PY32F0xx_HAL_Driver/Inc/py32f0xx_ll_exti.h ****   *         @arg @ref LL_EXTI_LINE_14
 411:PY32F0xx_HAL_Driver/Inc/py32f0xx_ll_exti.h ****   *         @arg @ref LL_EXTI_LINE_15
 412:PY32F0xx_HAL_Driver/Inc/py32f0xx_ll_exti.h ****   *         @arg @ref LL_EXTI_LINE_16
 413:PY32F0xx_HAL_Driver/Inc/py32f0xx_ll_exti.h ****   *         @arg @ref LL_EXTI_LINE_17
 414:PY32F0xx_HAL_Driver/Inc/py32f0xx_ll_exti.h ****   *         @arg @ref LL_EXTI_LINE_18
 415:PY32F0xx_HAL_Driver/Inc/py32f0xx_ll_exti.h ****   *         @arg @ref LL_EXTI_LINE_19
 416:PY32F0xx_HAL_Driver/Inc/py32f0xx_ll_exti.h ****   *         @arg @ref LL_EXTI_LINE_29
 417:PY32F0xx_HAL_Driver/Inc/py32f0xx_ll_exti.h ****   * @note   Please check each device line mapping for EXTI Line availability
 418:PY32F0xx_HAL_Driver/Inc/py32f0xx_ll_exti.h ****   * @retval State of bit (1 or 0).
 419:PY32F0xx_HAL_Driver/Inc/py32f0xx_ll_exti.h ****   */
 420:PY32F0xx_HAL_Driver/Inc/py32f0xx_ll_exti.h **** __STATIC_INLINE uint32_t LL_EXTI_IsEnabledEvent(uint32_t ExtiLine)
 421:PY32F0xx_HAL_Driver/Inc/py32f0xx_ll_exti.h **** {
 422:PY32F0xx_HAL_Driver/Inc/py32f0xx_ll_exti.h ****   return (READ_BIT(EXTI->EMR, ExtiLine) == (ExtiLine));
 423:PY32F0xx_HAL_Driver/Inc/py32f0xx_ll_exti.h **** }
 424:PY32F0xx_HAL_Driver/Inc/py32f0xx_ll_exti.h **** 
 425:PY32F0xx_HAL_Driver/Inc/py32f0xx_ll_exti.h **** /**
 426:PY32F0xx_HAL_Driver/Inc/py32f0xx_ll_exti.h ****   * @}
 427:PY32F0xx_HAL_Driver/Inc/py32f0xx_ll_exti.h ****   */
 428:PY32F0xx_HAL_Driver/Inc/py32f0xx_ll_exti.h **** 
 429:PY32F0xx_HAL_Driver/Inc/py32f0xx_ll_exti.h **** /** @defgroup EXTI_LL_EF_Rising_Trigger_Management Rising_Trigger_Management
 430:PY32F0xx_HAL_Driver/Inc/py32f0xx_ll_exti.h ****   * @{
 431:PY32F0xx_HAL_Driver/Inc/py32f0xx_ll_exti.h ****   */
 432:PY32F0xx_HAL_Driver/Inc/py32f0xx_ll_exti.h **** 
 433:PY32F0xx_HAL_Driver/Inc/py32f0xx_ll_exti.h **** /**
 434:PY32F0xx_HAL_Driver/Inc/py32f0xx_ll_exti.h ****   * @brief  Enable ExtiLine Rising Edge Trigger for Lines
 435:PY32F0xx_HAL_Driver/Inc/py32f0xx_ll_exti.h ****   * @note The configurable wakeup lines are edge-triggered. No glitch must be
 436:PY32F0xx_HAL_Driver/Inc/py32f0xx_ll_exti.h ****   *       generated on these lines. If a rising edge on a configurable interrupt
 437:PY32F0xx_HAL_Driver/Inc/py32f0xx_ll_exti.h ****   *       line occurs during a write operation in the EXTI_RTSR register, the
 438:PY32F0xx_HAL_Driver/Inc/py32f0xx_ll_exti.h ****   *       pending bit is not set.
 439:PY32F0xx_HAL_Driver/Inc/py32f0xx_ll_exti.h ****   *       Rising and falling edge triggers can be set for
 440:PY32F0xx_HAL_Driver/Inc/py32f0xx_ll_exti.h ****   *       the same interrupt line. In this case, both generate a trigger
 441:PY32F0xx_HAL_Driver/Inc/py32f0xx_ll_exti.h ****   *       condition.
 442:PY32F0xx_HAL_Driver/Inc/py32f0xx_ll_exti.h ****   * @param  ExtiLine This parameter can be a combination of the following values:
 443:PY32F0xx_HAL_Driver/Inc/py32f0xx_ll_exti.h ****   *         @arg @ref LL_EXTI_LINE_0
 444:PY32F0xx_HAL_Driver/Inc/py32f0xx_ll_exti.h ****   *         @arg @ref LL_EXTI_LINE_1
 445:PY32F0xx_HAL_Driver/Inc/py32f0xx_ll_exti.h ****   *         @arg @ref LL_EXTI_LINE_2
 446:PY32F0xx_HAL_Driver/Inc/py32f0xx_ll_exti.h ****   *         @arg @ref LL_EXTI_LINE_3
 447:PY32F0xx_HAL_Driver/Inc/py32f0xx_ll_exti.h ****   *         @arg @ref LL_EXTI_LINE_4
 448:PY32F0xx_HAL_Driver/Inc/py32f0xx_ll_exti.h ****   *         @arg @ref LL_EXTI_LINE_5
 449:PY32F0xx_HAL_Driver/Inc/py32f0xx_ll_exti.h ****   *         @arg @ref LL_EXTI_LINE_6
 450:PY32F0xx_HAL_Driver/Inc/py32f0xx_ll_exti.h ****   *         @arg @ref LL_EXTI_LINE_7
 451:PY32F0xx_HAL_Driver/Inc/py32f0xx_ll_exti.h ****   *         @arg @ref LL_EXTI_LINE_8
 452:PY32F0xx_HAL_Driver/Inc/py32f0xx_ll_exti.h ****   *         @arg @ref LL_EXTI_LINE_9
 453:PY32F0xx_HAL_Driver/Inc/py32f0xx_ll_exti.h ****   *         @arg @ref LL_EXTI_LINE_10
ARM GAS  /tmp/ccHJbOwl.s 			page 25


 454:PY32F0xx_HAL_Driver/Inc/py32f0xx_ll_exti.h ****   *         @arg @ref LL_EXTI_LINE_11
 455:PY32F0xx_HAL_Driver/Inc/py32f0xx_ll_exti.h ****   *         @arg @ref LL_EXTI_LINE_12
 456:PY32F0xx_HAL_Driver/Inc/py32f0xx_ll_exti.h ****   *         @arg @ref LL_EXTI_LINE_13
 457:PY32F0xx_HAL_Driver/Inc/py32f0xx_ll_exti.h ****   *         @arg @ref LL_EXTI_LINE_14
 458:PY32F0xx_HAL_Driver/Inc/py32f0xx_ll_exti.h ****   *         @arg @ref LL_EXTI_LINE_15
 459:PY32F0xx_HAL_Driver/Inc/py32f0xx_ll_exti.h ****   *         @arg @ref LL_EXTI_LINE_16
 460:PY32F0xx_HAL_Driver/Inc/py32f0xx_ll_exti.h ****   *         @arg @ref LL_EXTI_LINE_17
 461:PY32F0xx_HAL_Driver/Inc/py32f0xx_ll_exti.h ****   *         @arg @ref LL_EXTI_LINE_18
 462:PY32F0xx_HAL_Driver/Inc/py32f0xx_ll_exti.h ****   * @note   Please check each device line mapping for EXTI Line availability
 463:PY32F0xx_HAL_Driver/Inc/py32f0xx_ll_exti.h ****   * @retval None
 464:PY32F0xx_HAL_Driver/Inc/py32f0xx_ll_exti.h ****   */
 465:PY32F0xx_HAL_Driver/Inc/py32f0xx_ll_exti.h **** __STATIC_INLINE void LL_EXTI_EnableRisingTrig(uint32_t ExtiLine)
 325              		.loc 2 465 22 view .LVU92
 326              	.LBB31:
 466:PY32F0xx_HAL_Driver/Inc/py32f0xx_ll_exti.h **** {
 467:PY32F0xx_HAL_Driver/Inc/py32f0xx_ll_exti.h ****   SET_BIT(EXTI->RTSR, ExtiLine);
 327              		.loc 2 467 3 view .LVU93
 328 0124 2D49     		ldr	r1, .L33+24
 329 0126 0A68     		ldr	r2, [r1]
 330 0128 1A43     		orrs	r2, r3
 331 012a 0A60     		str	r2, [r1]
 332              	.LVL16:
 333              	.L18:
 334              		.loc 2 467 3 is_stmt 0 view .LVU94
 335              	.LBE31:
 336              	.LBE30:
 387:PY32F0xx_HAL_Driver/Src/py32f0xx_hal_comp.c ****       {
 337              		.loc 1 387 7 is_stmt 1 view .LVU95
 387:PY32F0xx_HAL_Driver/Src/py32f0xx_hal_comp.c ****       {
 338              		.loc 1 387 22 is_stmt 0 view .LVU96
 339 012c 226A     		ldr	r2, [r4, #32]
 387:PY32F0xx_HAL_Driver/Src/py32f0xx_hal_comp.c ****       {
 340              		.loc 1 387 9 view .LVU97
 341 012e 9206     		lsls	r2, r2, #26
 342 0130 1ED5     		bpl	.L19
 389:PY32F0xx_HAL_Driver/Src/py32f0xx_hal_comp.c ****       }
 343              		.loc 1 389 9 is_stmt 1 view .LVU98
 344              	.LVL17:
 345              	.LBB32:
 346              	.LBI32:
 468:PY32F0xx_HAL_Driver/Inc/py32f0xx_ll_exti.h **** 
 469:PY32F0xx_HAL_Driver/Inc/py32f0xx_ll_exti.h **** }
 470:PY32F0xx_HAL_Driver/Inc/py32f0xx_ll_exti.h **** 
 471:PY32F0xx_HAL_Driver/Inc/py32f0xx_ll_exti.h **** /**
 472:PY32F0xx_HAL_Driver/Inc/py32f0xx_ll_exti.h ****   * @brief  Disable ExtiLine Rising Edge Trigger for Lines
 473:PY32F0xx_HAL_Driver/Inc/py32f0xx_ll_exti.h ****   * @note The configurable wakeup lines are edge-triggered. No glitch must be
 474:PY32F0xx_HAL_Driver/Inc/py32f0xx_ll_exti.h ****   *       generated on these lines. If a rising edge on a configurable interrupt
 475:PY32F0xx_HAL_Driver/Inc/py32f0xx_ll_exti.h ****   *       line occurs during a write operation in the EXTI_RTSR register, the
 476:PY32F0xx_HAL_Driver/Inc/py32f0xx_ll_exti.h ****   *       pending bit is not set.
 477:PY32F0xx_HAL_Driver/Inc/py32f0xx_ll_exti.h ****   *       Rising and falling edge triggers can be set for
 478:PY32F0xx_HAL_Driver/Inc/py32f0xx_ll_exti.h ****   *       the same interrupt line. In this case, both generate a trigger
 479:PY32F0xx_HAL_Driver/Inc/py32f0xx_ll_exti.h ****   *       condition.
 480:PY32F0xx_HAL_Driver/Inc/py32f0xx_ll_exti.h ****   * @param  ExtiLine This parameter can be a combination of the following values:
 481:PY32F0xx_HAL_Driver/Inc/py32f0xx_ll_exti.h ****   *         @arg @ref LL_EXTI_LINE_0
 482:PY32F0xx_HAL_Driver/Inc/py32f0xx_ll_exti.h ****   *         @arg @ref LL_EXTI_LINE_1
 483:PY32F0xx_HAL_Driver/Inc/py32f0xx_ll_exti.h ****   *         @arg @ref LL_EXTI_LINE_2
 484:PY32F0xx_HAL_Driver/Inc/py32f0xx_ll_exti.h ****   *         @arg @ref LL_EXTI_LINE_3
ARM GAS  /tmp/ccHJbOwl.s 			page 26


 485:PY32F0xx_HAL_Driver/Inc/py32f0xx_ll_exti.h ****   *         @arg @ref LL_EXTI_LINE_4
 486:PY32F0xx_HAL_Driver/Inc/py32f0xx_ll_exti.h ****   *         @arg @ref LL_EXTI_LINE_5
 487:PY32F0xx_HAL_Driver/Inc/py32f0xx_ll_exti.h ****   *         @arg @ref LL_EXTI_LINE_6
 488:PY32F0xx_HAL_Driver/Inc/py32f0xx_ll_exti.h ****   *         @arg @ref LL_EXTI_LINE_7
 489:PY32F0xx_HAL_Driver/Inc/py32f0xx_ll_exti.h ****   *         @arg @ref LL_EXTI_LINE_8
 490:PY32F0xx_HAL_Driver/Inc/py32f0xx_ll_exti.h ****   *         @arg @ref LL_EXTI_LINE_9
 491:PY32F0xx_HAL_Driver/Inc/py32f0xx_ll_exti.h ****   *         @arg @ref LL_EXTI_LINE_10
 492:PY32F0xx_HAL_Driver/Inc/py32f0xx_ll_exti.h ****   *         @arg @ref LL_EXTI_LINE_11
 493:PY32F0xx_HAL_Driver/Inc/py32f0xx_ll_exti.h ****   *         @arg @ref LL_EXTI_LINE_12
 494:PY32F0xx_HAL_Driver/Inc/py32f0xx_ll_exti.h ****   *         @arg @ref LL_EXTI_LINE_13
 495:PY32F0xx_HAL_Driver/Inc/py32f0xx_ll_exti.h ****   *         @arg @ref LL_EXTI_LINE_14
 496:PY32F0xx_HAL_Driver/Inc/py32f0xx_ll_exti.h ****   *         @arg @ref LL_EXTI_LINE_15
 497:PY32F0xx_HAL_Driver/Inc/py32f0xx_ll_exti.h ****   *         @arg @ref LL_EXTI_LINE_16
 498:PY32F0xx_HAL_Driver/Inc/py32f0xx_ll_exti.h ****   *         @arg @ref LL_EXTI_LINE_17
 499:PY32F0xx_HAL_Driver/Inc/py32f0xx_ll_exti.h ****   *         @arg @ref LL_EXTI_LINE_18
 500:PY32F0xx_HAL_Driver/Inc/py32f0xx_ll_exti.h ****   * @note   Please check each device line mapping for EXTI Line availability
 501:PY32F0xx_HAL_Driver/Inc/py32f0xx_ll_exti.h ****   * @retval None
 502:PY32F0xx_HAL_Driver/Inc/py32f0xx_ll_exti.h ****   */
 503:PY32F0xx_HAL_Driver/Inc/py32f0xx_ll_exti.h **** __STATIC_INLINE void LL_EXTI_DisableRisingTrig(uint32_t ExtiLine)
 504:PY32F0xx_HAL_Driver/Inc/py32f0xx_ll_exti.h **** {
 505:PY32F0xx_HAL_Driver/Inc/py32f0xx_ll_exti.h ****   CLEAR_BIT(EXTI->RTSR, ExtiLine);
 506:PY32F0xx_HAL_Driver/Inc/py32f0xx_ll_exti.h **** 
 507:PY32F0xx_HAL_Driver/Inc/py32f0xx_ll_exti.h **** }
 508:PY32F0xx_HAL_Driver/Inc/py32f0xx_ll_exti.h **** 
 509:PY32F0xx_HAL_Driver/Inc/py32f0xx_ll_exti.h **** 
 510:PY32F0xx_HAL_Driver/Inc/py32f0xx_ll_exti.h **** /**
 511:PY32F0xx_HAL_Driver/Inc/py32f0xx_ll_exti.h ****   * @brief  Check if rising edge trigger is enabled for Lines
 512:PY32F0xx_HAL_Driver/Inc/py32f0xx_ll_exti.h ****   * @param  ExtiLine This parameter can be a combination of the following values:
 513:PY32F0xx_HAL_Driver/Inc/py32f0xx_ll_exti.h ****   *         @arg @ref LL_EXTI_LINE_0
 514:PY32F0xx_HAL_Driver/Inc/py32f0xx_ll_exti.h ****   *         @arg @ref LL_EXTI_LINE_1
 515:PY32F0xx_HAL_Driver/Inc/py32f0xx_ll_exti.h ****   *         @arg @ref LL_EXTI_LINE_2
 516:PY32F0xx_HAL_Driver/Inc/py32f0xx_ll_exti.h ****   *         @arg @ref LL_EXTI_LINE_3
 517:PY32F0xx_HAL_Driver/Inc/py32f0xx_ll_exti.h ****   *         @arg @ref LL_EXTI_LINE_4
 518:PY32F0xx_HAL_Driver/Inc/py32f0xx_ll_exti.h ****   *         @arg @ref LL_EXTI_LINE_5
 519:PY32F0xx_HAL_Driver/Inc/py32f0xx_ll_exti.h ****   *         @arg @ref LL_EXTI_LINE_6
 520:PY32F0xx_HAL_Driver/Inc/py32f0xx_ll_exti.h ****   *         @arg @ref LL_EXTI_LINE_7
 521:PY32F0xx_HAL_Driver/Inc/py32f0xx_ll_exti.h ****   *         @arg @ref LL_EXTI_LINE_8
 522:PY32F0xx_HAL_Driver/Inc/py32f0xx_ll_exti.h ****   *         @arg @ref LL_EXTI_LINE_9
 523:PY32F0xx_HAL_Driver/Inc/py32f0xx_ll_exti.h ****   *         @arg @ref LL_EXTI_LINE_10
 524:PY32F0xx_HAL_Driver/Inc/py32f0xx_ll_exti.h ****   *         @arg @ref LL_EXTI_LINE_11
 525:PY32F0xx_HAL_Driver/Inc/py32f0xx_ll_exti.h ****   *         @arg @ref LL_EXTI_LINE_12
 526:PY32F0xx_HAL_Driver/Inc/py32f0xx_ll_exti.h ****   *         @arg @ref LL_EXTI_LINE_13
 527:PY32F0xx_HAL_Driver/Inc/py32f0xx_ll_exti.h ****   *         @arg @ref LL_EXTI_LINE_14
 528:PY32F0xx_HAL_Driver/Inc/py32f0xx_ll_exti.h ****   *         @arg @ref LL_EXTI_LINE_15
 529:PY32F0xx_HAL_Driver/Inc/py32f0xx_ll_exti.h ****   *         @arg @ref LL_EXTI_LINE_16
 530:PY32F0xx_HAL_Driver/Inc/py32f0xx_ll_exti.h ****   *         @arg @ref LL_EXTI_LINE_17
 531:PY32F0xx_HAL_Driver/Inc/py32f0xx_ll_exti.h ****   *         @arg @ref LL_EXTI_LINE_18
 532:PY32F0xx_HAL_Driver/Inc/py32f0xx_ll_exti.h ****   * @note   Please check each device line mapping for EXTI Line availability
 533:PY32F0xx_HAL_Driver/Inc/py32f0xx_ll_exti.h ****   * @retval State of bit (1 or 0).
 534:PY32F0xx_HAL_Driver/Inc/py32f0xx_ll_exti.h ****   */
 535:PY32F0xx_HAL_Driver/Inc/py32f0xx_ll_exti.h **** __STATIC_INLINE uint32_t LL_EXTI_IsEnabledRisingTrig(uint32_t ExtiLine)
 536:PY32F0xx_HAL_Driver/Inc/py32f0xx_ll_exti.h **** {
 537:PY32F0xx_HAL_Driver/Inc/py32f0xx_ll_exti.h ****   return (READ_BIT(EXTI->RTSR, ExtiLine) == (ExtiLine));
 538:PY32F0xx_HAL_Driver/Inc/py32f0xx_ll_exti.h **** }
 539:PY32F0xx_HAL_Driver/Inc/py32f0xx_ll_exti.h **** 
 540:PY32F0xx_HAL_Driver/Inc/py32f0xx_ll_exti.h **** 
 541:PY32F0xx_HAL_Driver/Inc/py32f0xx_ll_exti.h **** /**
ARM GAS  /tmp/ccHJbOwl.s 			page 27


 542:PY32F0xx_HAL_Driver/Inc/py32f0xx_ll_exti.h ****   * @}
 543:PY32F0xx_HAL_Driver/Inc/py32f0xx_ll_exti.h ****   */
 544:PY32F0xx_HAL_Driver/Inc/py32f0xx_ll_exti.h **** 
 545:PY32F0xx_HAL_Driver/Inc/py32f0xx_ll_exti.h **** /** @defgroup EXTI_LL_EF_Falling_Trigger_Management Falling_Trigger_Management
 546:PY32F0xx_HAL_Driver/Inc/py32f0xx_ll_exti.h ****   * @{
 547:PY32F0xx_HAL_Driver/Inc/py32f0xx_ll_exti.h ****   */
 548:PY32F0xx_HAL_Driver/Inc/py32f0xx_ll_exti.h **** 
 549:PY32F0xx_HAL_Driver/Inc/py32f0xx_ll_exti.h **** /**
 550:PY32F0xx_HAL_Driver/Inc/py32f0xx_ll_exti.h ****   * @brief  Enable ExtiLine Falling Edge Trigger for Lines
 551:PY32F0xx_HAL_Driver/Inc/py32f0xx_ll_exti.h ****   * @note The configurable wakeup lines are edge-triggered. No glitch must be
 552:PY32F0xx_HAL_Driver/Inc/py32f0xx_ll_exti.h ****   *       generated on these lines. If a falling edge on a configurable interrupt
 553:PY32F0xx_HAL_Driver/Inc/py32f0xx_ll_exti.h ****   *       line occurs during a write operation in the EXTI_FTSR register, the
 554:PY32F0xx_HAL_Driver/Inc/py32f0xx_ll_exti.h ****   *       pending bit is not set.
 555:PY32F0xx_HAL_Driver/Inc/py32f0xx_ll_exti.h ****   *       Rising and falling edge triggers can be set for
 556:PY32F0xx_HAL_Driver/Inc/py32f0xx_ll_exti.h ****   *       the same interrupt line. In this case, both generate a trigger
 557:PY32F0xx_HAL_Driver/Inc/py32f0xx_ll_exti.h ****   *       condition.
 558:PY32F0xx_HAL_Driver/Inc/py32f0xx_ll_exti.h ****   * @param  ExtiLine This parameter can be a combination of the following values:
 559:PY32F0xx_HAL_Driver/Inc/py32f0xx_ll_exti.h ****   *         @arg @ref LL_EXTI_LINE_0
 560:PY32F0xx_HAL_Driver/Inc/py32f0xx_ll_exti.h ****   *         @arg @ref LL_EXTI_LINE_1
 561:PY32F0xx_HAL_Driver/Inc/py32f0xx_ll_exti.h ****   *         @arg @ref LL_EXTI_LINE_2
 562:PY32F0xx_HAL_Driver/Inc/py32f0xx_ll_exti.h ****   *         @arg @ref LL_EXTI_LINE_3
 563:PY32F0xx_HAL_Driver/Inc/py32f0xx_ll_exti.h ****   *         @arg @ref LL_EXTI_LINE_4
 564:PY32F0xx_HAL_Driver/Inc/py32f0xx_ll_exti.h ****   *         @arg @ref LL_EXTI_LINE_5
 565:PY32F0xx_HAL_Driver/Inc/py32f0xx_ll_exti.h ****   *         @arg @ref LL_EXTI_LINE_6
 566:PY32F0xx_HAL_Driver/Inc/py32f0xx_ll_exti.h ****   *         @arg @ref LL_EXTI_LINE_7
 567:PY32F0xx_HAL_Driver/Inc/py32f0xx_ll_exti.h ****   *         @arg @ref LL_EXTI_LINE_8
 568:PY32F0xx_HAL_Driver/Inc/py32f0xx_ll_exti.h ****   *         @arg @ref LL_EXTI_LINE_9
 569:PY32F0xx_HAL_Driver/Inc/py32f0xx_ll_exti.h ****   *         @arg @ref LL_EXTI_LINE_10
 570:PY32F0xx_HAL_Driver/Inc/py32f0xx_ll_exti.h ****   *         @arg @ref LL_EXTI_LINE_11
 571:PY32F0xx_HAL_Driver/Inc/py32f0xx_ll_exti.h ****   *         @arg @ref LL_EXTI_LINE_12
 572:PY32F0xx_HAL_Driver/Inc/py32f0xx_ll_exti.h ****   *         @arg @ref LL_EXTI_LINE_13
 573:PY32F0xx_HAL_Driver/Inc/py32f0xx_ll_exti.h ****   *         @arg @ref LL_EXTI_LINE_14
 574:PY32F0xx_HAL_Driver/Inc/py32f0xx_ll_exti.h ****   *         @arg @ref LL_EXTI_LINE_15
 575:PY32F0xx_HAL_Driver/Inc/py32f0xx_ll_exti.h ****   *         @arg @ref LL_EXTI_LINE_16
 576:PY32F0xx_HAL_Driver/Inc/py32f0xx_ll_exti.h ****   *         @arg @ref LL_EXTI_LINE_17
 577:PY32F0xx_HAL_Driver/Inc/py32f0xx_ll_exti.h ****   *         @arg @ref LL_EXTI_LINE_18
 578:PY32F0xx_HAL_Driver/Inc/py32f0xx_ll_exti.h ****   * @note   Please check each device line mapping for EXTI Line availability
 579:PY32F0xx_HAL_Driver/Inc/py32f0xx_ll_exti.h ****   * @retval None
 580:PY32F0xx_HAL_Driver/Inc/py32f0xx_ll_exti.h ****   */
 581:PY32F0xx_HAL_Driver/Inc/py32f0xx_ll_exti.h **** __STATIC_INLINE void LL_EXTI_EnableFallingTrig(uint32_t ExtiLine)
 347              		.loc 2 581 22 view .LVU99
 348              	.LBB33:
 582:PY32F0xx_HAL_Driver/Inc/py32f0xx_ll_exti.h **** {
 583:PY32F0xx_HAL_Driver/Inc/py32f0xx_ll_exti.h ****   SET_BIT(EXTI->FTSR, ExtiLine);
 349              		.loc 2 583 3 view .LVU100
 350 0132 2A49     		ldr	r1, .L33+24
 351 0134 4A68     		ldr	r2, [r1, #4]
 352 0136 1A43     		orrs	r2, r3
 353 0138 4A60     		str	r2, [r1, #4]
 354              	.LVL18:
 355              	.L20:
 356              		.loc 2 583 3 is_stmt 0 view .LVU101
 357              	.LBE33:
 358              	.LBE32:
 397:PY32F0xx_HAL_Driver/Src/py32f0xx_hal_comp.c **** 
 359              		.loc 1 397 7 is_stmt 1 view .LVU102
 360              	.LBB34:
ARM GAS  /tmp/ccHJbOwl.s 			page 28


 361              	.LBI34:
 584:PY32F0xx_HAL_Driver/Inc/py32f0xx_ll_exti.h **** }
 585:PY32F0xx_HAL_Driver/Inc/py32f0xx_ll_exti.h **** 
 586:PY32F0xx_HAL_Driver/Inc/py32f0xx_ll_exti.h **** /**
 587:PY32F0xx_HAL_Driver/Inc/py32f0xx_ll_exti.h ****   * @brief  Disable ExtiLine Falling Edge Trigger for Lines
 588:PY32F0xx_HAL_Driver/Inc/py32f0xx_ll_exti.h ****   * @note The configurable wakeup lines are edge-triggered. No glitch must be
 589:PY32F0xx_HAL_Driver/Inc/py32f0xx_ll_exti.h ****   *       generated on these lines. If a Falling edge on a configurable interrupt
 590:PY32F0xx_HAL_Driver/Inc/py32f0xx_ll_exti.h ****   *       line occurs during a write operation in the EXTI_FTSR register, the
 591:PY32F0xx_HAL_Driver/Inc/py32f0xx_ll_exti.h ****   *       pending bit is not set.
 592:PY32F0xx_HAL_Driver/Inc/py32f0xx_ll_exti.h ****   *       Rising and falling edge triggers can be set for the same interrupt line.
 593:PY32F0xx_HAL_Driver/Inc/py32f0xx_ll_exti.h ****   *       In this case, both generate a trigger condition.
 594:PY32F0xx_HAL_Driver/Inc/py32f0xx_ll_exti.h ****   * @param  ExtiLine This parameter can be a combination of the following values:
 595:PY32F0xx_HAL_Driver/Inc/py32f0xx_ll_exti.h ****   *         @arg @ref LL_EXTI_LINE_0
 596:PY32F0xx_HAL_Driver/Inc/py32f0xx_ll_exti.h ****   *         @arg @ref LL_EXTI_LINE_1
 597:PY32F0xx_HAL_Driver/Inc/py32f0xx_ll_exti.h ****   *         @arg @ref LL_EXTI_LINE_2
 598:PY32F0xx_HAL_Driver/Inc/py32f0xx_ll_exti.h ****   *         @arg @ref LL_EXTI_LINE_3
 599:PY32F0xx_HAL_Driver/Inc/py32f0xx_ll_exti.h ****   *         @arg @ref LL_EXTI_LINE_4
 600:PY32F0xx_HAL_Driver/Inc/py32f0xx_ll_exti.h ****   *         @arg @ref LL_EXTI_LINE_5
 601:PY32F0xx_HAL_Driver/Inc/py32f0xx_ll_exti.h ****   *         @arg @ref LL_EXTI_LINE_6
 602:PY32F0xx_HAL_Driver/Inc/py32f0xx_ll_exti.h ****   *         @arg @ref LL_EXTI_LINE_7
 603:PY32F0xx_HAL_Driver/Inc/py32f0xx_ll_exti.h ****   *         @arg @ref LL_EXTI_LINE_8
 604:PY32F0xx_HAL_Driver/Inc/py32f0xx_ll_exti.h ****   *         @arg @ref LL_EXTI_LINE_9
 605:PY32F0xx_HAL_Driver/Inc/py32f0xx_ll_exti.h ****   *         @arg @ref LL_EXTI_LINE_10
 606:PY32F0xx_HAL_Driver/Inc/py32f0xx_ll_exti.h ****   *         @arg @ref LL_EXTI_LINE_11
 607:PY32F0xx_HAL_Driver/Inc/py32f0xx_ll_exti.h ****   *         @arg @ref LL_EXTI_LINE_12
 608:PY32F0xx_HAL_Driver/Inc/py32f0xx_ll_exti.h ****   *         @arg @ref LL_EXTI_LINE_13
 609:PY32F0xx_HAL_Driver/Inc/py32f0xx_ll_exti.h ****   *         @arg @ref LL_EXTI_LINE_14
 610:PY32F0xx_HAL_Driver/Inc/py32f0xx_ll_exti.h ****   *         @arg @ref LL_EXTI_LINE_15
 611:PY32F0xx_HAL_Driver/Inc/py32f0xx_ll_exti.h ****   *         @arg @ref LL_EXTI_LINE_16
 612:PY32F0xx_HAL_Driver/Inc/py32f0xx_ll_exti.h ****   *         @arg @ref LL_EXTI_LINE_17
 613:PY32F0xx_HAL_Driver/Inc/py32f0xx_ll_exti.h ****   *         @arg @ref LL_EXTI_LINE_18
 614:PY32F0xx_HAL_Driver/Inc/py32f0xx_ll_exti.h ****   * @note   Please check each device line mapping for EXTI Line availability
 615:PY32F0xx_HAL_Driver/Inc/py32f0xx_ll_exti.h ****   * @retval None
 616:PY32F0xx_HAL_Driver/Inc/py32f0xx_ll_exti.h ****   */
 617:PY32F0xx_HAL_Driver/Inc/py32f0xx_ll_exti.h **** __STATIC_INLINE void LL_EXTI_DisableFallingTrig(uint32_t ExtiLine)
 618:PY32F0xx_HAL_Driver/Inc/py32f0xx_ll_exti.h **** {
 619:PY32F0xx_HAL_Driver/Inc/py32f0xx_ll_exti.h ****   CLEAR_BIT(EXTI->FTSR, ExtiLine);
 620:PY32F0xx_HAL_Driver/Inc/py32f0xx_ll_exti.h **** }
 621:PY32F0xx_HAL_Driver/Inc/py32f0xx_ll_exti.h **** 
 622:PY32F0xx_HAL_Driver/Inc/py32f0xx_ll_exti.h **** /**
 623:PY32F0xx_HAL_Driver/Inc/py32f0xx_ll_exti.h ****   * @brief  Check if falling edge trigger is enabled for Lines
 624:PY32F0xx_HAL_Driver/Inc/py32f0xx_ll_exti.h ****   * @param  ExtiLine This parameter can be a combination of the following values:
 625:PY32F0xx_HAL_Driver/Inc/py32f0xx_ll_exti.h ****   *         @arg @ref LL_EXTI_LINE_0
 626:PY32F0xx_HAL_Driver/Inc/py32f0xx_ll_exti.h ****   *         @arg @ref LL_EXTI_LINE_1
 627:PY32F0xx_HAL_Driver/Inc/py32f0xx_ll_exti.h ****   *         @arg @ref LL_EXTI_LINE_2
 628:PY32F0xx_HAL_Driver/Inc/py32f0xx_ll_exti.h ****   *         @arg @ref LL_EXTI_LINE_3
 629:PY32F0xx_HAL_Driver/Inc/py32f0xx_ll_exti.h ****   *         @arg @ref LL_EXTI_LINE_4
 630:PY32F0xx_HAL_Driver/Inc/py32f0xx_ll_exti.h ****   *         @arg @ref LL_EXTI_LINE_5
 631:PY32F0xx_HAL_Driver/Inc/py32f0xx_ll_exti.h ****   *         @arg @ref LL_EXTI_LINE_6
 632:PY32F0xx_HAL_Driver/Inc/py32f0xx_ll_exti.h ****   *         @arg @ref LL_EXTI_LINE_7
 633:PY32F0xx_HAL_Driver/Inc/py32f0xx_ll_exti.h ****   *         @arg @ref LL_EXTI_LINE_8
 634:PY32F0xx_HAL_Driver/Inc/py32f0xx_ll_exti.h ****   *         @arg @ref LL_EXTI_LINE_9
 635:PY32F0xx_HAL_Driver/Inc/py32f0xx_ll_exti.h ****   *         @arg @ref LL_EXTI_LINE_10
 636:PY32F0xx_HAL_Driver/Inc/py32f0xx_ll_exti.h ****   *         @arg @ref LL_EXTI_LINE_11
 637:PY32F0xx_HAL_Driver/Inc/py32f0xx_ll_exti.h ****   *         @arg @ref LL_EXTI_LINE_12
 638:PY32F0xx_HAL_Driver/Inc/py32f0xx_ll_exti.h ****   *         @arg @ref LL_EXTI_LINE_13
 639:PY32F0xx_HAL_Driver/Inc/py32f0xx_ll_exti.h ****   *         @arg @ref LL_EXTI_LINE_14
ARM GAS  /tmp/ccHJbOwl.s 			page 29


 640:PY32F0xx_HAL_Driver/Inc/py32f0xx_ll_exti.h ****   *         @arg @ref LL_EXTI_LINE_15
 641:PY32F0xx_HAL_Driver/Inc/py32f0xx_ll_exti.h ****   *         @arg @ref LL_EXTI_LINE_16
 642:PY32F0xx_HAL_Driver/Inc/py32f0xx_ll_exti.h ****   *         @arg @ref LL_EXTI_LINE_17
 643:PY32F0xx_HAL_Driver/Inc/py32f0xx_ll_exti.h ****   *         @arg @ref LL_EXTI_LINE_18
 644:PY32F0xx_HAL_Driver/Inc/py32f0xx_ll_exti.h ****   * @note   Please check each device line mapping for EXTI Line availability
 645:PY32F0xx_HAL_Driver/Inc/py32f0xx_ll_exti.h ****   * @retval State of bit (1 or 0).
 646:PY32F0xx_HAL_Driver/Inc/py32f0xx_ll_exti.h ****   */
 647:PY32F0xx_HAL_Driver/Inc/py32f0xx_ll_exti.h **** __STATIC_INLINE uint32_t LL_EXTI_IsEnabledFallingTrig(uint32_t ExtiLine)
 648:PY32F0xx_HAL_Driver/Inc/py32f0xx_ll_exti.h **** {
 649:PY32F0xx_HAL_Driver/Inc/py32f0xx_ll_exti.h ****   return (READ_BIT(EXTI->FTSR, ExtiLine) == (ExtiLine));
 650:PY32F0xx_HAL_Driver/Inc/py32f0xx_ll_exti.h **** }
 651:PY32F0xx_HAL_Driver/Inc/py32f0xx_ll_exti.h **** 
 652:PY32F0xx_HAL_Driver/Inc/py32f0xx_ll_exti.h **** /**
 653:PY32F0xx_HAL_Driver/Inc/py32f0xx_ll_exti.h ****   * @}
 654:PY32F0xx_HAL_Driver/Inc/py32f0xx_ll_exti.h ****   */
 655:PY32F0xx_HAL_Driver/Inc/py32f0xx_ll_exti.h **** 
 656:PY32F0xx_HAL_Driver/Inc/py32f0xx_ll_exti.h **** /** @defgroup EXTI_LL_EF_Software_Interrupt_Management Software_Interrupt_Management
 657:PY32F0xx_HAL_Driver/Inc/py32f0xx_ll_exti.h ****   * @{
 658:PY32F0xx_HAL_Driver/Inc/py32f0xx_ll_exti.h ****   */
 659:PY32F0xx_HAL_Driver/Inc/py32f0xx_ll_exti.h **** 
 660:PY32F0xx_HAL_Driver/Inc/py32f0xx_ll_exti.h **** /**
 661:PY32F0xx_HAL_Driver/Inc/py32f0xx_ll_exti.h ****   * @brief  Generate a software Interrupt Event for Lines
 662:PY32F0xx_HAL_Driver/Inc/py32f0xx_ll_exti.h ****   * @note If the interrupt is enabled on this line in the EXTI_IMR, writing a 1 to
 663:PY32F0xx_HAL_Driver/Inc/py32f0xx_ll_exti.h ****   *       this bit when it is at '0' sets the corresponding pending bit in EXTI_PR
 664:PY32F0xx_HAL_Driver/Inc/py32f0xx_ll_exti.h ****   *       resulting in an interrupt request generation.
 665:PY32F0xx_HAL_Driver/Inc/py32f0xx_ll_exti.h ****   *       This bit is cleared by clearing the corresponding bit in the EXTI_PR
 666:PY32F0xx_HAL_Driver/Inc/py32f0xx_ll_exti.h ****   *       register (by writing a 1 into the bit)
 667:PY32F0xx_HAL_Driver/Inc/py32f0xx_ll_exti.h ****   * @param  ExtiLine This parameter can be a combination of the following values:
 668:PY32F0xx_HAL_Driver/Inc/py32f0xx_ll_exti.h ****   *         @arg @ref LL_EXTI_LINE_0
 669:PY32F0xx_HAL_Driver/Inc/py32f0xx_ll_exti.h ****   *         @arg @ref LL_EXTI_LINE_1
 670:PY32F0xx_HAL_Driver/Inc/py32f0xx_ll_exti.h ****   *         @arg @ref LL_EXTI_LINE_2
 671:PY32F0xx_HAL_Driver/Inc/py32f0xx_ll_exti.h ****   *         @arg @ref LL_EXTI_LINE_3
 672:PY32F0xx_HAL_Driver/Inc/py32f0xx_ll_exti.h ****   *         @arg @ref LL_EXTI_LINE_4
 673:PY32F0xx_HAL_Driver/Inc/py32f0xx_ll_exti.h ****   *         @arg @ref LL_EXTI_LINE_5
 674:PY32F0xx_HAL_Driver/Inc/py32f0xx_ll_exti.h ****   *         @arg @ref LL_EXTI_LINE_6
 675:PY32F0xx_HAL_Driver/Inc/py32f0xx_ll_exti.h ****   *         @arg @ref LL_EXTI_LINE_7
 676:PY32F0xx_HAL_Driver/Inc/py32f0xx_ll_exti.h ****   *         @arg @ref LL_EXTI_LINE_8
 677:PY32F0xx_HAL_Driver/Inc/py32f0xx_ll_exti.h ****   *         @arg @ref LL_EXTI_LINE_9
 678:PY32F0xx_HAL_Driver/Inc/py32f0xx_ll_exti.h ****   *         @arg @ref LL_EXTI_LINE_10
 679:PY32F0xx_HAL_Driver/Inc/py32f0xx_ll_exti.h ****   *         @arg @ref LL_EXTI_LINE_11
 680:PY32F0xx_HAL_Driver/Inc/py32f0xx_ll_exti.h ****   *         @arg @ref LL_EXTI_LINE_12
 681:PY32F0xx_HAL_Driver/Inc/py32f0xx_ll_exti.h ****   *         @arg @ref LL_EXTI_LINE_13
 682:PY32F0xx_HAL_Driver/Inc/py32f0xx_ll_exti.h ****   *         @arg @ref LL_EXTI_LINE_14
 683:PY32F0xx_HAL_Driver/Inc/py32f0xx_ll_exti.h ****   *         @arg @ref LL_EXTI_LINE_15
 684:PY32F0xx_HAL_Driver/Inc/py32f0xx_ll_exti.h ****   *         @arg @ref LL_EXTI_LINE_16
 685:PY32F0xx_HAL_Driver/Inc/py32f0xx_ll_exti.h ****   *         @arg @ref LL_EXTI_LINE_17
 686:PY32F0xx_HAL_Driver/Inc/py32f0xx_ll_exti.h ****   *         @arg @ref LL_EXTI_LINE_18
 687:PY32F0xx_HAL_Driver/Inc/py32f0xx_ll_exti.h ****   * @note   Please check each device line mapping for EXTI Line availability
 688:PY32F0xx_HAL_Driver/Inc/py32f0xx_ll_exti.h ****   * @retval None
 689:PY32F0xx_HAL_Driver/Inc/py32f0xx_ll_exti.h ****   */
 690:PY32F0xx_HAL_Driver/Inc/py32f0xx_ll_exti.h **** __STATIC_INLINE void LL_EXTI_GenerateSWI(uint32_t ExtiLine)
 691:PY32F0xx_HAL_Driver/Inc/py32f0xx_ll_exti.h **** {
 692:PY32F0xx_HAL_Driver/Inc/py32f0xx_ll_exti.h ****   SET_BIT(EXTI->SWIER, ExtiLine);
 693:PY32F0xx_HAL_Driver/Inc/py32f0xx_ll_exti.h **** }
 694:PY32F0xx_HAL_Driver/Inc/py32f0xx_ll_exti.h **** 
 695:PY32F0xx_HAL_Driver/Inc/py32f0xx_ll_exti.h **** /**
 696:PY32F0xx_HAL_Driver/Inc/py32f0xx_ll_exti.h ****   * @}
ARM GAS  /tmp/ccHJbOwl.s 			page 30


 697:PY32F0xx_HAL_Driver/Inc/py32f0xx_ll_exti.h ****   */
 698:PY32F0xx_HAL_Driver/Inc/py32f0xx_ll_exti.h **** 
 699:PY32F0xx_HAL_Driver/Inc/py32f0xx_ll_exti.h **** /** @defgroup EXTI_LL_EF_Flag_Management Flag_Management
 700:PY32F0xx_HAL_Driver/Inc/py32f0xx_ll_exti.h ****   * @{
 701:PY32F0xx_HAL_Driver/Inc/py32f0xx_ll_exti.h ****   */
 702:PY32F0xx_HAL_Driver/Inc/py32f0xx_ll_exti.h **** 
 703:PY32F0xx_HAL_Driver/Inc/py32f0xx_ll_exti.h **** /**
 704:PY32F0xx_HAL_Driver/Inc/py32f0xx_ll_exti.h ****   * @brief  Check if the ExtLine Flag is set or not for Lines
 705:PY32F0xx_HAL_Driver/Inc/py32f0xx_ll_exti.h ****   * @param  ExtiLine This parameter can be a combination of the following values:
 706:PY32F0xx_HAL_Driver/Inc/py32f0xx_ll_exti.h ****   *         @arg @ref LL_EXTI_LINE_0
 707:PY32F0xx_HAL_Driver/Inc/py32f0xx_ll_exti.h ****   *         @arg @ref LL_EXTI_LINE_1
 708:PY32F0xx_HAL_Driver/Inc/py32f0xx_ll_exti.h ****   *         @arg @ref LL_EXTI_LINE_2
 709:PY32F0xx_HAL_Driver/Inc/py32f0xx_ll_exti.h ****   *         @arg @ref LL_EXTI_LINE_3
 710:PY32F0xx_HAL_Driver/Inc/py32f0xx_ll_exti.h ****   *         @arg @ref LL_EXTI_LINE_4
 711:PY32F0xx_HAL_Driver/Inc/py32f0xx_ll_exti.h ****   *         @arg @ref LL_EXTI_LINE_5
 712:PY32F0xx_HAL_Driver/Inc/py32f0xx_ll_exti.h ****   *         @arg @ref LL_EXTI_LINE_6
 713:PY32F0xx_HAL_Driver/Inc/py32f0xx_ll_exti.h ****   *         @arg @ref LL_EXTI_LINE_7
 714:PY32F0xx_HAL_Driver/Inc/py32f0xx_ll_exti.h ****   *         @arg @ref LL_EXTI_LINE_8
 715:PY32F0xx_HAL_Driver/Inc/py32f0xx_ll_exti.h ****   *         @arg @ref LL_EXTI_LINE_9
 716:PY32F0xx_HAL_Driver/Inc/py32f0xx_ll_exti.h ****   *         @arg @ref LL_EXTI_LINE_10
 717:PY32F0xx_HAL_Driver/Inc/py32f0xx_ll_exti.h ****   *         @arg @ref LL_EXTI_LINE_11
 718:PY32F0xx_HAL_Driver/Inc/py32f0xx_ll_exti.h ****   *         @arg @ref LL_EXTI_LINE_12
 719:PY32F0xx_HAL_Driver/Inc/py32f0xx_ll_exti.h ****   *         @arg @ref LL_EXTI_LINE_13
 720:PY32F0xx_HAL_Driver/Inc/py32f0xx_ll_exti.h ****   *         @arg @ref LL_EXTI_LINE_14
 721:PY32F0xx_HAL_Driver/Inc/py32f0xx_ll_exti.h ****   *         @arg @ref LL_EXTI_LINE_15
 722:PY32F0xx_HAL_Driver/Inc/py32f0xx_ll_exti.h ****   *         @arg @ref LL_EXTI_LINE_16
 723:PY32F0xx_HAL_Driver/Inc/py32f0xx_ll_exti.h ****   *         @arg @ref LL_EXTI_LINE_17
 724:PY32F0xx_HAL_Driver/Inc/py32f0xx_ll_exti.h ****   *         @arg @ref LL_EXTI_LINE_18
 725:PY32F0xx_HAL_Driver/Inc/py32f0xx_ll_exti.h ****   * @note   Please check each device line mapping for EXTI Line availability
 726:PY32F0xx_HAL_Driver/Inc/py32f0xx_ll_exti.h ****   * @retval State of bit (1 or 0).
 727:PY32F0xx_HAL_Driver/Inc/py32f0xx_ll_exti.h ****   */
 728:PY32F0xx_HAL_Driver/Inc/py32f0xx_ll_exti.h **** __STATIC_INLINE uint32_t LL_EXTI_IsActiveFlag(uint32_t ExtiLine)
 729:PY32F0xx_HAL_Driver/Inc/py32f0xx_ll_exti.h **** {
 730:PY32F0xx_HAL_Driver/Inc/py32f0xx_ll_exti.h ****   return (READ_BIT(EXTI->PR, ExtiLine) == (ExtiLine));
 731:PY32F0xx_HAL_Driver/Inc/py32f0xx_ll_exti.h **** }
 732:PY32F0xx_HAL_Driver/Inc/py32f0xx_ll_exti.h **** 
 733:PY32F0xx_HAL_Driver/Inc/py32f0xx_ll_exti.h **** /**
 734:PY32F0xx_HAL_Driver/Inc/py32f0xx_ll_exti.h ****   * @brief  Read ExtLine Combination Flag for Lines
 735:PY32F0xx_HAL_Driver/Inc/py32f0xx_ll_exti.h ****   * @param  ExtiLine This parameter can be a combination of the following values:
 736:PY32F0xx_HAL_Driver/Inc/py32f0xx_ll_exti.h ****   *         @arg @ref LL_EXTI_LINE_0
 737:PY32F0xx_HAL_Driver/Inc/py32f0xx_ll_exti.h ****   *         @arg @ref LL_EXTI_LINE_1
 738:PY32F0xx_HAL_Driver/Inc/py32f0xx_ll_exti.h ****   *         @arg @ref LL_EXTI_LINE_2
 739:PY32F0xx_HAL_Driver/Inc/py32f0xx_ll_exti.h ****   *         @arg @ref LL_EXTI_LINE_3
 740:PY32F0xx_HAL_Driver/Inc/py32f0xx_ll_exti.h ****   *         @arg @ref LL_EXTI_LINE_4
 741:PY32F0xx_HAL_Driver/Inc/py32f0xx_ll_exti.h ****   *         @arg @ref LL_EXTI_LINE_5
 742:PY32F0xx_HAL_Driver/Inc/py32f0xx_ll_exti.h ****   *         @arg @ref LL_EXTI_LINE_6
 743:PY32F0xx_HAL_Driver/Inc/py32f0xx_ll_exti.h ****   *         @arg @ref LL_EXTI_LINE_7
 744:PY32F0xx_HAL_Driver/Inc/py32f0xx_ll_exti.h ****   *         @arg @ref LL_EXTI_LINE_8
 745:PY32F0xx_HAL_Driver/Inc/py32f0xx_ll_exti.h ****   *         @arg @ref LL_EXTI_LINE_9
 746:PY32F0xx_HAL_Driver/Inc/py32f0xx_ll_exti.h ****   *         @arg @ref LL_EXTI_LINE_10
 747:PY32F0xx_HAL_Driver/Inc/py32f0xx_ll_exti.h ****   *         @arg @ref LL_EXTI_LINE_11
 748:PY32F0xx_HAL_Driver/Inc/py32f0xx_ll_exti.h ****   *         @arg @ref LL_EXTI_LINE_12
 749:PY32F0xx_HAL_Driver/Inc/py32f0xx_ll_exti.h ****   *         @arg @ref LL_EXTI_LINE_13
 750:PY32F0xx_HAL_Driver/Inc/py32f0xx_ll_exti.h ****   *         @arg @ref LL_EXTI_LINE_14
 751:PY32F0xx_HAL_Driver/Inc/py32f0xx_ll_exti.h ****   *         @arg @ref LL_EXTI_LINE_15
 752:PY32F0xx_HAL_Driver/Inc/py32f0xx_ll_exti.h ****   *         @arg @ref LL_EXTI_LINE_16
 753:PY32F0xx_HAL_Driver/Inc/py32f0xx_ll_exti.h ****   *         @arg @ref LL_EXTI_LINE_17
ARM GAS  /tmp/ccHJbOwl.s 			page 31


 754:PY32F0xx_HAL_Driver/Inc/py32f0xx_ll_exti.h ****   *         @arg @ref LL_EXTI_LINE_18
 755:PY32F0xx_HAL_Driver/Inc/py32f0xx_ll_exti.h ****   * @note   Please check each device line mapping for EXTI Line availability
 756:PY32F0xx_HAL_Driver/Inc/py32f0xx_ll_exti.h ****   * @retval @note This bit is set when the selected edge event arrives on the interrupt
 757:PY32F0xx_HAL_Driver/Inc/py32f0xx_ll_exti.h ****   */
 758:PY32F0xx_HAL_Driver/Inc/py32f0xx_ll_exti.h **** __STATIC_INLINE uint32_t LL_EXTI_ReadFlag(uint32_t ExtiLine)
 759:PY32F0xx_HAL_Driver/Inc/py32f0xx_ll_exti.h **** {
 760:PY32F0xx_HAL_Driver/Inc/py32f0xx_ll_exti.h ****   return (READ_BIT(EXTI->PR, ExtiLine));
 761:PY32F0xx_HAL_Driver/Inc/py32f0xx_ll_exti.h **** }
 762:PY32F0xx_HAL_Driver/Inc/py32f0xx_ll_exti.h **** 
 763:PY32F0xx_HAL_Driver/Inc/py32f0xx_ll_exti.h **** /**
 764:PY32F0xx_HAL_Driver/Inc/py32f0xx_ll_exti.h ****   * @brief  Clear ExtLine Flags  for Lines
 765:PY32F0xx_HAL_Driver/Inc/py32f0xx_ll_exti.h ****   * @param  ExtiLine This parameter can be a combination of the following values:
 766:PY32F0xx_HAL_Driver/Inc/py32f0xx_ll_exti.h ****   *         @arg @ref LL_EXTI_LINE_0
 767:PY32F0xx_HAL_Driver/Inc/py32f0xx_ll_exti.h ****   *         @arg @ref LL_EXTI_LINE_1
 768:PY32F0xx_HAL_Driver/Inc/py32f0xx_ll_exti.h ****   *         @arg @ref LL_EXTI_LINE_2
 769:PY32F0xx_HAL_Driver/Inc/py32f0xx_ll_exti.h ****   *         @arg @ref LL_EXTI_LINE_3
 770:PY32F0xx_HAL_Driver/Inc/py32f0xx_ll_exti.h ****   *         @arg @ref LL_EXTI_LINE_4
 771:PY32F0xx_HAL_Driver/Inc/py32f0xx_ll_exti.h ****   *         @arg @ref LL_EXTI_LINE_5
 772:PY32F0xx_HAL_Driver/Inc/py32f0xx_ll_exti.h ****   *         @arg @ref LL_EXTI_LINE_6
 773:PY32F0xx_HAL_Driver/Inc/py32f0xx_ll_exti.h ****   *         @arg @ref LL_EXTI_LINE_7
 774:PY32F0xx_HAL_Driver/Inc/py32f0xx_ll_exti.h ****   *         @arg @ref LL_EXTI_LINE_8
 775:PY32F0xx_HAL_Driver/Inc/py32f0xx_ll_exti.h ****   *         @arg @ref LL_EXTI_LINE_9
 776:PY32F0xx_HAL_Driver/Inc/py32f0xx_ll_exti.h ****   *         @arg @ref LL_EXTI_LINE_10
 777:PY32F0xx_HAL_Driver/Inc/py32f0xx_ll_exti.h ****   *         @arg @ref LL_EXTI_LINE_11
 778:PY32F0xx_HAL_Driver/Inc/py32f0xx_ll_exti.h ****   *         @arg @ref LL_EXTI_LINE_12
 779:PY32F0xx_HAL_Driver/Inc/py32f0xx_ll_exti.h ****   *         @arg @ref LL_EXTI_LINE_13
 780:PY32F0xx_HAL_Driver/Inc/py32f0xx_ll_exti.h ****   *         @arg @ref LL_EXTI_LINE_14
 781:PY32F0xx_HAL_Driver/Inc/py32f0xx_ll_exti.h ****   *         @arg @ref LL_EXTI_LINE_15
 782:PY32F0xx_HAL_Driver/Inc/py32f0xx_ll_exti.h ****   *         @arg @ref LL_EXTI_LINE_16
 783:PY32F0xx_HAL_Driver/Inc/py32f0xx_ll_exti.h ****   *         @arg @ref LL_EXTI_LINE_17
 784:PY32F0xx_HAL_Driver/Inc/py32f0xx_ll_exti.h ****   *         @arg @ref LL_EXTI_LINE_18
 785:PY32F0xx_HAL_Driver/Inc/py32f0xx_ll_exti.h ****   * @note   Please check each device line mapping for EXTI Line availability
 786:PY32F0xx_HAL_Driver/Inc/py32f0xx_ll_exti.h ****   * @retval None
 787:PY32F0xx_HAL_Driver/Inc/py32f0xx_ll_exti.h ****   */
 788:PY32F0xx_HAL_Driver/Inc/py32f0xx_ll_exti.h **** __STATIC_INLINE void LL_EXTI_ClearFlag(uint32_t ExtiLine)
 362              		.loc 2 788 22 view .LVU103
 363              	.LBB35:
 789:PY32F0xx_HAL_Driver/Inc/py32f0xx_ll_exti.h **** {
 790:PY32F0xx_HAL_Driver/Inc/py32f0xx_ll_exti.h ****   WRITE_REG(EXTI->PR, ExtiLine);
 364              		.loc 2 790 3 view .LVU104
 365 013a 284A     		ldr	r2, .L33+24
 366 013c D360     		str	r3, [r2, #12]
 367              	.LVL19:
 368              		.loc 2 790 3 is_stmt 0 view .LVU105
 369              	.LBE35:
 370              	.LBE34:
 400:PY32F0xx_HAL_Driver/Src/py32f0xx_hal_comp.c ****       {
 371              		.loc 1 400 7 is_stmt 1 view .LVU106
 400:PY32F0xx_HAL_Driver/Src/py32f0xx_hal_comp.c ****       {
 372              		.loc 1 400 22 is_stmt 0 view .LVU107
 373 013e 226A     		ldr	r2, [r4, #32]
 400:PY32F0xx_HAL_Driver/Src/py32f0xx_hal_comp.c ****       {
 374              		.loc 1 400 9 view .LVU108
 375 0140 9207     		lsls	r2, r2, #30
 376 0142 1AD5     		bpl	.L21
 402:PY32F0xx_HAL_Driver/Src/py32f0xx_hal_comp.c ****       }
 377              		.loc 1 402 9 is_stmt 1 view .LVU109
ARM GAS  /tmp/ccHJbOwl.s 			page 32


 378              	.LVL20:
 379              	.LBB36:
 380              	.LBI36:
 356:PY32F0xx_HAL_Driver/Inc/py32f0xx_ll_exti.h **** {
 381              		.loc 2 356 22 view .LVU110
 382              	.LBB37:
 358:PY32F0xx_HAL_Driver/Inc/py32f0xx_ll_exti.h **** 
 383              		.loc 2 358 3 view .LVU111
 384 0144 2548     		ldr	r0, .L33+24
 385 0146 8421     		movs	r1, #132
 386 0148 4258     		ldr	r2, [r0, r1]
 387 014a 1A43     		orrs	r2, r3
 388 014c 4250     		str	r2, [r0, r1]
 389              	.LVL21:
 390              	.L22:
 358:PY32F0xx_HAL_Driver/Inc/py32f0xx_ll_exti.h **** 
 391              		.loc 2 358 3 is_stmt 0 view .LVU112
 392              	.LBE37:
 393              	.LBE36:
 410:PY32F0xx_HAL_Driver/Src/py32f0xx_hal_comp.c ****       {
 394              		.loc 1 410 7 is_stmt 1 view .LVU113
 410:PY32F0xx_HAL_Driver/Src/py32f0xx_hal_comp.c ****       {
 395              		.loc 1 410 22 is_stmt 0 view .LVU114
 396 014e 226A     		ldr	r2, [r4, #32]
 410:PY32F0xx_HAL_Driver/Src/py32f0xx_hal_comp.c ****       {
 397              		.loc 1 410 9 view .LVU115
 398 0150 D207     		lsls	r2, r2, #31
 399 0152 18D5     		bpl	.L23
 412:PY32F0xx_HAL_Driver/Src/py32f0xx_hal_comp.c ****       }
 400              		.loc 1 412 9 is_stmt 1 view .LVU116
 401              	.LVL22:
 402              	.LBB38:
 403              	.LBI38:
 250:PY32F0xx_HAL_Driver/Inc/py32f0xx_ll_exti.h **** {
 404              		.loc 2 250 22 view .LVU117
 405              	.LBB39:
 252:PY32F0xx_HAL_Driver/Inc/py32f0xx_ll_exti.h **** }
 406              		.loc 2 252 3 view .LVU118
 407 0154 2148     		ldr	r0, .L33+24
 408 0156 8021     		movs	r1, #128
 409 0158 4258     		ldr	r2, [r0, r1]
 410 015a 1343     		orrs	r3, r2
 411 015c 4350     		str	r3, [r0, r1]
 412              	.LVL23:
 253:PY32F0xx_HAL_Driver/Inc/py32f0xx_ll_exti.h **** 
 413              		.loc 2 253 1 is_stmt 0 view .LVU119
 414 015e 21E0     		b	.L24
 415              	.LVL24:
 416              	.L32:
 253:PY32F0xx_HAL_Driver/Inc/py32f0xx_ll_exti.h **** 
 417              		.loc 2 253 1 view .LVU120
 418              	.LBE39:
 419              	.LBE38:
 371:PY32F0xx_HAL_Driver/Src/py32f0xx_hal_comp.c **** 
 420              		.loc 1 371 17 discriminator 1 view .LVU121
 421 0160 8023     		movs	r3, #128
 422 0162 9B02     		lsls	r3, r3, #10
ARM GAS  /tmp/ccHJbOwl.s 			page 33


 423 0164 D9E7     		b	.L15
 424              	.LVL25:
 425              	.L17:
 383:PY32F0xx_HAL_Driver/Src/py32f0xx_hal_comp.c ****       }
 426              		.loc 1 383 9 is_stmt 1 view .LVU122
 427              	.LBB40:
 428              	.LBI40:
 503:PY32F0xx_HAL_Driver/Inc/py32f0xx_ll_exti.h **** {
 429              		.loc 2 503 22 view .LVU123
 430              	.LBB41:
 505:PY32F0xx_HAL_Driver/Inc/py32f0xx_ll_exti.h **** 
 431              		.loc 2 505 3 view .LVU124
 432 0166 1D49     		ldr	r1, .L33+24
 433 0168 0A68     		ldr	r2, [r1]
 434 016a 9A43     		bics	r2, r3
 435 016c 0A60     		str	r2, [r1]
 436              	.LVL26:
 507:PY32F0xx_HAL_Driver/Inc/py32f0xx_ll_exti.h **** 
 437              		.loc 2 507 1 is_stmt 0 view .LVU125
 438 016e DDE7     		b	.L18
 439              	.L19:
 507:PY32F0xx_HAL_Driver/Inc/py32f0xx_ll_exti.h **** 
 440              		.loc 2 507 1 view .LVU126
 441              	.LBE41:
 442              	.LBE40:
 393:PY32F0xx_HAL_Driver/Src/py32f0xx_hal_comp.c ****       }
 443              		.loc 1 393 9 is_stmt 1 view .LVU127
 444              	.LVL27:
 445              	.LBB42:
 446              	.LBI42:
 617:PY32F0xx_HAL_Driver/Inc/py32f0xx_ll_exti.h **** {
 447              		.loc 2 617 22 view .LVU128
 448              	.LBB43:
 619:PY32F0xx_HAL_Driver/Inc/py32f0xx_ll_exti.h **** }
 449              		.loc 2 619 3 view .LVU129
 450 0170 1A49     		ldr	r1, .L33+24
 451 0172 4A68     		ldr	r2, [r1, #4]
 452 0174 9A43     		bics	r2, r3
 453 0176 4A60     		str	r2, [r1, #4]
 454              	.LVL28:
 620:PY32F0xx_HAL_Driver/Inc/py32f0xx_ll_exti.h **** 
 455              		.loc 2 620 1 is_stmt 0 view .LVU130
 456 0178 DFE7     		b	.L20
 457              	.L21:
 620:PY32F0xx_HAL_Driver/Inc/py32f0xx_ll_exti.h **** 
 458              		.loc 2 620 1 view .LVU131
 459              	.LBE43:
 460              	.LBE42:
 406:PY32F0xx_HAL_Driver/Src/py32f0xx_hal_comp.c ****       }
 461              		.loc 1 406 9 is_stmt 1 view .LVU132
 462              	.LVL29:
 463              	.LBB44:
 464              	.LBI44:
 388:PY32F0xx_HAL_Driver/Inc/py32f0xx_ll_exti.h **** {
 465              		.loc 2 388 22 view .LVU133
 466              	.LBB45:
 390:PY32F0xx_HAL_Driver/Inc/py32f0xx_ll_exti.h **** }
ARM GAS  /tmp/ccHJbOwl.s 			page 34


 467              		.loc 2 390 3 view .LVU134
 468 017a 1848     		ldr	r0, .L33+24
 469 017c 8421     		movs	r1, #132
 470 017e 4258     		ldr	r2, [r0, r1]
 471 0180 9A43     		bics	r2, r3
 472 0182 4250     		str	r2, [r0, r1]
 473              	.LVL30:
 391:PY32F0xx_HAL_Driver/Inc/py32f0xx_ll_exti.h **** 
 474              		.loc 2 391 1 is_stmt 0 view .LVU135
 475 0184 E3E7     		b	.L22
 476              	.L23:
 391:PY32F0xx_HAL_Driver/Inc/py32f0xx_ll_exti.h **** 
 477              		.loc 2 391 1 view .LVU136
 478              	.LBE45:
 479              	.LBE44:
 416:PY32F0xx_HAL_Driver/Src/py32f0xx_hal_comp.c ****       }
 480              		.loc 1 416 9 is_stmt 1 view .LVU137
 481              	.LVL31:
 482              	.LBB46:
 483              	.LBI46:
 282:PY32F0xx_HAL_Driver/Inc/py32f0xx_ll_exti.h **** {
 484              		.loc 2 282 22 view .LVU138
 485              	.LBB47:
 284:PY32F0xx_HAL_Driver/Inc/py32f0xx_ll_exti.h **** }
 486              		.loc 2 284 3 view .LVU139
 487 0186 1548     		ldr	r0, .L33+24
 488 0188 8021     		movs	r1, #128
 489 018a 4258     		ldr	r2, [r0, r1]
 490 018c 9A43     		bics	r2, r3
 491 018e 4250     		str	r2, [r0, r1]
 492              	.LVL32:
 285:PY32F0xx_HAL_Driver/Inc/py32f0xx_ll_exti.h **** 
 493              		.loc 2 285 1 is_stmt 0 view .LVU140
 494 0190 08E0     		b	.L24
 495              	.L16:
 285:PY32F0xx_HAL_Driver/Inc/py32f0xx_ll_exti.h **** 
 496              		.loc 2 285 1 view .LVU141
 497              	.LBE47:
 498              	.LBE46:
 422:PY32F0xx_HAL_Driver/Src/py32f0xx_hal_comp.c **** 
 499              		.loc 1 422 7 is_stmt 1 view .LVU142
 500              	.LVL33:
 501              	.LBB48:
 502              	.LBI48:
 388:PY32F0xx_HAL_Driver/Inc/py32f0xx_ll_exti.h **** {
 503              		.loc 2 388 22 view .LVU143
 504              	.LBB49:
 390:PY32F0xx_HAL_Driver/Inc/py32f0xx_ll_exti.h **** }
 505              		.loc 2 390 3 view .LVU144
 506 0192 124A     		ldr	r2, .L33+24
 507 0194 8420     		movs	r0, #132
 508 0196 1158     		ldr	r1, [r2, r0]
 509 0198 9943     		bics	r1, r3
 510 019a 1150     		str	r1, [r2, r0]
 511              	.LVL34:
 390:PY32F0xx_HAL_Driver/Inc/py32f0xx_ll_exti.h **** }
 512              		.loc 2 390 3 is_stmt 0 view .LVU145
ARM GAS  /tmp/ccHJbOwl.s 			page 35


 513              	.LBE49:
 514              	.LBE48:
 425:PY32F0xx_HAL_Driver/Src/py32f0xx_hal_comp.c ****     }
 515              		.loc 1 425 7 is_stmt 1 view .LVU146
 516              	.LBB50:
 517              	.LBI50:
 282:PY32F0xx_HAL_Driver/Inc/py32f0xx_ll_exti.h **** {
 518              		.loc 2 282 22 view .LVU147
 519              	.LBB51:
 284:PY32F0xx_HAL_Driver/Inc/py32f0xx_ll_exti.h **** }
 520              		.loc 2 284 3 view .LVU148
 521 019c 0438     		subs	r0, r0, #4
 522 019e 1158     		ldr	r1, [r2, r0]
 523 01a0 9943     		bics	r1, r3
 524 01a2 1150     		str	r1, [r2, r0]
 525              	.LVL35:
 526              	.L24:
 284:PY32F0xx_HAL_Driver/Inc/py32f0xx_ll_exti.h **** }
 527              		.loc 2 284 3 is_stmt 0 view .LVU149
 528              	.LBE51:
 529              	.LBE50:
 431:PY32F0xx_HAL_Driver/Src/py32f0xx_hal_comp.c ****     {
 530              		.loc 1 431 5 is_stmt 1 view .LVU150
 431:PY32F0xx_HAL_Driver/Src/py32f0xx_hal_comp.c ****     {
 531              		.loc 1 431 14 is_stmt 0 view .LVU151
 532 01a4 2523     		movs	r3, #37
 533 01a6 E35C     		ldrb	r3, [r4, r3]
 534 01a8 D8B2     		uxtb	r0, r3
 431:PY32F0xx_HAL_Driver/Src/py32f0xx_hal_comp.c ****     {
 535              		.loc 1 431 8 view .LVU152
 536 01aa 002B     		cmp	r3, #0
 537 01ac 08D1     		bne	.L28
 433:PY32F0xx_HAL_Driver/Src/py32f0xx_hal_comp.c ****     }
 538              		.loc 1 433 7 is_stmt 1 view .LVU153
 433:PY32F0xx_HAL_Driver/Src/py32f0xx_hal_comp.c ****     }
 539              		.loc 1 433 20 is_stmt 0 view .LVU154
 540 01ae 2533     		adds	r3, r3, #37
 541 01b0 0122     		movs	r2, #1
 542 01b2 E254     		strb	r2, [r4, r3]
 543 01b4 00E0     		b	.L3
 544              	.LVL36:
 545              	.L25:
 245:PY32F0xx_HAL_Driver/Src/py32f0xx_hal_comp.c ****   }
 546              		.loc 1 245 12 view .LVU155
 547 01b6 0120     		movs	r0, #1
 548              	.LVL37:
 549              	.L3:
 437:PY32F0xx_HAL_Driver/Src/py32f0xx_hal_comp.c **** }
 550              		.loc 1 437 3 is_stmt 1 view .LVU156
 438:PY32F0xx_HAL_Driver/Src/py32f0xx_hal_comp.c **** 
 551              		.loc 1 438 1 is_stmt 0 view .LVU157
 552 01b8 03B0     		add	sp, sp, #12
 553              		@ sp needed
 554              	.LVL38:
 438:PY32F0xx_HAL_Driver/Src/py32f0xx_hal_comp.c **** 
 555              		.loc 1 438 1 view .LVU158
 556 01ba 30BD     		pop	{r4, r5, pc}
ARM GAS  /tmp/ccHJbOwl.s 			page 36


 557              	.LVL39:
 558              	.L26:
 249:PY32F0xx_HAL_Driver/Src/py32f0xx_hal_comp.c ****   }
 559              		.loc 1 249 12 view .LVU159
 560 01bc 0120     		movs	r0, #1
 561              	.LVL40:
 249:PY32F0xx_HAL_Driver/Src/py32f0xx_hal_comp.c ****   }
 562              		.loc 1 249 12 view .LVU160
 563 01be FBE7     		b	.L3
 564              	.LVL41:
 565              	.L28:
 240:PY32F0xx_HAL_Driver/Src/py32f0xx_hal_comp.c **** 
 566              		.loc 1 240 21 view .LVU161
 567 01c0 0020     		movs	r0, #0
 568 01c2 F9E7     		b	.L3
 569              	.L34:
 570              		.align	2
 571              	.L33:
 572 01c4 0E74F33F 		.word	1072919566
 573 01c8 00020140 		.word	1073807872
 574 01cc FFFFFEFF 		.word	-65537
 575 01d0 FFF7FFFF 		.word	-2049
 576 01d4 00000000 		.word	SystemCoreClock
 577 01d8 400D0300 		.word	200000
 578 01dc 00180240 		.word	1073879040
 579              		.cfi_endproc
 580              	.LFE55:
 582              		.section	.text.HAL_COMP_MspDeInit,"ax",%progbits
 583              		.align	1
 584              		.weak	HAL_COMP_MspDeInit
 585              		.syntax unified
 586              		.code	16
 587              		.thumb_func
 589              	HAL_COMP_MspDeInit:
 590              	.LVL42:
 591              	.LFB58:
 506:PY32F0xx_HAL_Driver/Src/py32f0xx_hal_comp.c **** 
 507:PY32F0xx_HAL_Driver/Src/py32f0xx_hal_comp.c **** /**
 508:PY32F0xx_HAL_Driver/Src/py32f0xx_hal_comp.c ****   * @brief  DeInitialize the COMP MSP.
 509:PY32F0xx_HAL_Driver/Src/py32f0xx_hal_comp.c ****   * @param  hcomp  COMP handle
 510:PY32F0xx_HAL_Driver/Src/py32f0xx_hal_comp.c ****   * @retval None
 511:PY32F0xx_HAL_Driver/Src/py32f0xx_hal_comp.c ****   */
 512:PY32F0xx_HAL_Driver/Src/py32f0xx_hal_comp.c **** __weak void HAL_COMP_MspDeInit(COMP_HandleTypeDef *hcomp)
 513:PY32F0xx_HAL_Driver/Src/py32f0xx_hal_comp.c **** {
 592              		.loc 1 513 1 is_stmt 1 view -0
 593              		.cfi_startproc
 594              		@ args = 0, pretend = 0, frame = 0
 595              		@ frame_needed = 0, uses_anonymous_args = 0
 596              		@ link register save eliminated.
 514:PY32F0xx_HAL_Driver/Src/py32f0xx_hal_comp.c ****   /* Prevent unused argument(s) compilation warning */
 515:PY32F0xx_HAL_Driver/Src/py32f0xx_hal_comp.c ****   UNUSED(hcomp);
 597              		.loc 1 515 3 view .LVU163
 516:PY32F0xx_HAL_Driver/Src/py32f0xx_hal_comp.c **** 
 517:PY32F0xx_HAL_Driver/Src/py32f0xx_hal_comp.c ****   /* NOTE : This function should not be modified, when the callback is needed,
 518:PY32F0xx_HAL_Driver/Src/py32f0xx_hal_comp.c ****             the HAL_COMP_MspDeInit could be implemented in the user file
 519:PY32F0xx_HAL_Driver/Src/py32f0xx_hal_comp.c ****    */
 520:PY32F0xx_HAL_Driver/Src/py32f0xx_hal_comp.c **** }
ARM GAS  /tmp/ccHJbOwl.s 			page 37


 598              		.loc 1 520 1 is_stmt 0 view .LVU164
 599              		@ sp needed
 600 0000 7047     		bx	lr
 601              		.cfi_endproc
 602              	.LFE58:
 604              		.section	.text.HAL_COMP_DeInit,"ax",%progbits
 605              		.align	1
 606              		.global	HAL_COMP_DeInit
 607              		.syntax unified
 608              		.code	16
 609              		.thumb_func
 611              	HAL_COMP_DeInit:
 612              	.LVL43:
 613              	.LFB56:
 449:PY32F0xx_HAL_Driver/Src/py32f0xx_hal_comp.c ****   HAL_StatusTypeDef status = HAL_OK;
 614              		.loc 1 449 1 is_stmt 1 view -0
 615              		.cfi_startproc
 616              		@ args = 0, pretend = 0, frame = 0
 617              		@ frame_needed = 0, uses_anonymous_args = 0
 449:PY32F0xx_HAL_Driver/Src/py32f0xx_hal_comp.c ****   HAL_StatusTypeDef status = HAL_OK;
 618              		.loc 1 449 1 is_stmt 0 view .LVU166
 619 0000 70B5     		push	{r4, r5, r6, lr}
 620              	.LCFI2:
 621              		.cfi_def_cfa_offset 16
 622              		.cfi_offset 4, -16
 623              		.cfi_offset 5, -12
 624              		.cfi_offset 6, -8
 625              		.cfi_offset 14, -4
 626 0002 041E     		subs	r4, r0, #0
 450:PY32F0xx_HAL_Driver/Src/py32f0xx_hal_comp.c **** 
 627              		.loc 1 450 3 is_stmt 1 view .LVU167
 628              	.LVL44:
 453:PY32F0xx_HAL_Driver/Src/py32f0xx_hal_comp.c ****   {
 629              		.loc 1 453 3 view .LVU168
 453:PY32F0xx_HAL_Driver/Src/py32f0xx_hal_comp.c ****   {
 630              		.loc 1 453 5 is_stmt 0 view .LVU169
 631 0004 0FD0     		beq	.L38
 457:PY32F0xx_HAL_Driver/Src/py32f0xx_hal_comp.c ****   {
 632              		.loc 1 457 8 is_stmt 1 view .LVU170
 457:PY32F0xx_HAL_Driver/Src/py32f0xx_hal_comp.c ****   {
 633              		.loc 1 457 11 is_stmt 0 view .LVU171
 634 0006 0368     		ldr	r3, [r0]
 635 0008 1A68     		ldr	r2, [r3]
 457:PY32F0xx_HAL_Driver/Src/py32f0xx_hal_comp.c ****   {
 636              		.loc 1 457 10 view .LVU172
 637 000a 002A     		cmp	r2, #0
 638 000c 01DA     		bge	.L40
 459:PY32F0xx_HAL_Driver/Src/py32f0xx_hal_comp.c ****   }
 639              		.loc 1 459 12 view .LVU173
 640 000e 0120     		movs	r0, #1
 641              	.LVL45:
 642              	.L37:
 486:PY32F0xx_HAL_Driver/Src/py32f0xx_hal_comp.c ****   }
 643              		.loc 1 486 5 is_stmt 1 discriminator 1 view .LVU174
 489:PY32F0xx_HAL_Driver/Src/py32f0xx_hal_comp.c **** }
 644              		.loc 1 489 3 view .LVU175
 490:PY32F0xx_HAL_Driver/Src/py32f0xx_hal_comp.c **** 
ARM GAS  /tmp/ccHJbOwl.s 			page 38


 645              		.loc 1 490 1 is_stmt 0 view .LVU176
 646              		@ sp needed
 647              	.LVL46:
 490:PY32F0xx_HAL_Driver/Src/py32f0xx_hal_comp.c **** 
 648              		.loc 1 490 1 view .LVU177
 649 0010 70BD     		pop	{r4, r5, r6, pc}
 650              	.LVL47:
 651              	.L40:
 464:PY32F0xx_HAL_Driver/Src/py32f0xx_hal_comp.c **** 
 652              		.loc 1 464 5 is_stmt 1 view .LVU178
 467:PY32F0xx_HAL_Driver/Src/py32f0xx_hal_comp.c **** 
 653              		.loc 1 467 5 view .LVU179
 654 0012 0025     		movs	r5, #0
 655 0014 1D60     		str	r5, [r3]
 479:PY32F0xx_HAL_Driver/Src/py32f0xx_hal_comp.c **** #endif /* USE_HAL_COMP_REGISTER_CALLBACKS */
 656              		.loc 1 479 5 view .LVU180
 657 0016 FFF7FEFF 		bl	HAL_COMP_MspDeInit
 658              	.LVL48:
 483:PY32F0xx_HAL_Driver/Src/py32f0xx_hal_comp.c **** 
 659              		.loc 1 483 5 view .LVU181
 483:PY32F0xx_HAL_Driver/Src/py32f0xx_hal_comp.c **** 
 660              		.loc 1 483 18 is_stmt 0 view .LVU182
 661 001a 2523     		movs	r3, #37
 662 001c E554     		strb	r5, [r4, r3]
 486:PY32F0xx_HAL_Driver/Src/py32f0xx_hal_comp.c ****   }
 663              		.loc 1 486 5 is_stmt 1 view .LVU183
 486:PY32F0xx_HAL_Driver/Src/py32f0xx_hal_comp.c ****   }
 664              		.loc 1 486 5 view .LVU184
 665 001e 013B     		subs	r3, r3, #1
 666 0020 E554     		strb	r5, [r4, r3]
 450:PY32F0xx_HAL_Driver/Src/py32f0xx_hal_comp.c **** 
 667              		.loc 1 450 21 is_stmt 0 view .LVU185
 668 0022 0020     		movs	r0, #0
 669 0024 F4E7     		b	.L37
 670              	.LVL49:
 671              	.L38:
 455:PY32F0xx_HAL_Driver/Src/py32f0xx_hal_comp.c ****   }
 672              		.loc 1 455 12 view .LVU186
 673 0026 0120     		movs	r0, #1
 674              	.LVL50:
 455:PY32F0xx_HAL_Driver/Src/py32f0xx_hal_comp.c ****   }
 675              		.loc 1 455 12 view .LVU187
 676 0028 F2E7     		b	.L37
 677              		.cfi_endproc
 678              	.LFE56:
 680              		.section	.text.HAL_COMP_Start,"ax",%progbits
 681              		.align	1
 682              		.global	HAL_COMP_Start
 683              		.syntax unified
 684              		.code	16
 685              		.thumb_func
 687              	HAL_COMP_Start:
 688              	.LVL51:
 689              	.LFB59:
 521:PY32F0xx_HAL_Driver/Src/py32f0xx_hal_comp.c **** 
 522:PY32F0xx_HAL_Driver/Src/py32f0xx_hal_comp.c **** #if (USE_HAL_COMP_REGISTER_CALLBACKS == 1)
 523:PY32F0xx_HAL_Driver/Src/py32f0xx_hal_comp.c **** /**
ARM GAS  /tmp/ccHJbOwl.s 			page 39


 524:PY32F0xx_HAL_Driver/Src/py32f0xx_hal_comp.c ****   * @brief  Register a User COMP Callback
 525:PY32F0xx_HAL_Driver/Src/py32f0xx_hal_comp.c ****   *         To be used instead of the weak predefined callback
 526:PY32F0xx_HAL_Driver/Src/py32f0xx_hal_comp.c ****   * @param  hcomp Pointer to a COMP_HandleTypeDef structure that contains
 527:PY32F0xx_HAL_Driver/Src/py32f0xx_hal_comp.c ****   *                the configuration information for the specified COMP.
 528:PY32F0xx_HAL_Driver/Src/py32f0xx_hal_comp.c ****   * @param  CallbackID ID of the callback to be registered
 529:PY32F0xx_HAL_Driver/Src/py32f0xx_hal_comp.c ****   *         This parameter can be one of the following values:
 530:PY32F0xx_HAL_Driver/Src/py32f0xx_hal_comp.c ****   *          @arg @ref HAL_COMP_TRIGGER_CB_ID Trigger callback ID
 531:PY32F0xx_HAL_Driver/Src/py32f0xx_hal_comp.c ****   *          @arg @ref HAL_COMP_MSPINIT_CB_ID MspInit callback ID
 532:PY32F0xx_HAL_Driver/Src/py32f0xx_hal_comp.c ****   *          @arg @ref HAL_COMP_MSPDEINIT_CB_ID MspDeInit callback ID
 533:PY32F0xx_HAL_Driver/Src/py32f0xx_hal_comp.c ****   * @param  pCallback pointer to the Callback function
 534:PY32F0xx_HAL_Driver/Src/py32f0xx_hal_comp.c ****   * @retval HAL status
 535:PY32F0xx_HAL_Driver/Src/py32f0xx_hal_comp.c ****   */
 536:PY32F0xx_HAL_Driver/Src/py32f0xx_hal_comp.c **** HAL_StatusTypeDef HAL_COMP_RegisterCallback(COMP_HandleTypeDef *hcomp, HAL_COMP_CallbackIDTypeDef C
 537:PY32F0xx_HAL_Driver/Src/py32f0xx_hal_comp.c **** {
 538:PY32F0xx_HAL_Driver/Src/py32f0xx_hal_comp.c ****   HAL_StatusTypeDef status = HAL_OK;
 539:PY32F0xx_HAL_Driver/Src/py32f0xx_hal_comp.c **** 
 540:PY32F0xx_HAL_Driver/Src/py32f0xx_hal_comp.c ****   if (pCallback == NULL)
 541:PY32F0xx_HAL_Driver/Src/py32f0xx_hal_comp.c ****   {
 542:PY32F0xx_HAL_Driver/Src/py32f0xx_hal_comp.c ****     /* Update the error code */
 543:PY32F0xx_HAL_Driver/Src/py32f0xx_hal_comp.c ****     hcomp->ErrorCode |= HAL_COMP_ERROR_INVALID_CALLBACK;
 544:PY32F0xx_HAL_Driver/Src/py32f0xx_hal_comp.c **** 
 545:PY32F0xx_HAL_Driver/Src/py32f0xx_hal_comp.c ****     return HAL_ERROR;
 546:PY32F0xx_HAL_Driver/Src/py32f0xx_hal_comp.c ****   }
 547:PY32F0xx_HAL_Driver/Src/py32f0xx_hal_comp.c **** 
 548:PY32F0xx_HAL_Driver/Src/py32f0xx_hal_comp.c ****   if (HAL_COMP_STATE_READY == hcomp->State)
 549:PY32F0xx_HAL_Driver/Src/py32f0xx_hal_comp.c ****   {
 550:PY32F0xx_HAL_Driver/Src/py32f0xx_hal_comp.c ****     switch (CallbackID)
 551:PY32F0xx_HAL_Driver/Src/py32f0xx_hal_comp.c ****     {
 552:PY32F0xx_HAL_Driver/Src/py32f0xx_hal_comp.c ****     case HAL_COMP_TRIGGER_CB_ID :
 553:PY32F0xx_HAL_Driver/Src/py32f0xx_hal_comp.c ****       hcomp->TriggerCallback = pCallback;
 554:PY32F0xx_HAL_Driver/Src/py32f0xx_hal_comp.c ****       break;
 555:PY32F0xx_HAL_Driver/Src/py32f0xx_hal_comp.c **** 
 556:PY32F0xx_HAL_Driver/Src/py32f0xx_hal_comp.c ****     case HAL_COMP_MSPINIT_CB_ID :
 557:PY32F0xx_HAL_Driver/Src/py32f0xx_hal_comp.c ****       hcomp->MspInitCallback = pCallback;
 558:PY32F0xx_HAL_Driver/Src/py32f0xx_hal_comp.c ****       break;
 559:PY32F0xx_HAL_Driver/Src/py32f0xx_hal_comp.c **** 
 560:PY32F0xx_HAL_Driver/Src/py32f0xx_hal_comp.c ****     case HAL_COMP_MSPDEINIT_CB_ID :
 561:PY32F0xx_HAL_Driver/Src/py32f0xx_hal_comp.c ****       hcomp->MspDeInitCallback = pCallback;
 562:PY32F0xx_HAL_Driver/Src/py32f0xx_hal_comp.c ****       break;
 563:PY32F0xx_HAL_Driver/Src/py32f0xx_hal_comp.c **** 
 564:PY32F0xx_HAL_Driver/Src/py32f0xx_hal_comp.c ****     default :
 565:PY32F0xx_HAL_Driver/Src/py32f0xx_hal_comp.c ****       /* Update the error code */
 566:PY32F0xx_HAL_Driver/Src/py32f0xx_hal_comp.c ****       hcomp->ErrorCode |= HAL_COMP_ERROR_INVALID_CALLBACK;
 567:PY32F0xx_HAL_Driver/Src/py32f0xx_hal_comp.c **** 
 568:PY32F0xx_HAL_Driver/Src/py32f0xx_hal_comp.c ****       /* Return error status */
 569:PY32F0xx_HAL_Driver/Src/py32f0xx_hal_comp.c ****       status = HAL_ERROR;
 570:PY32F0xx_HAL_Driver/Src/py32f0xx_hal_comp.c ****       break;
 571:PY32F0xx_HAL_Driver/Src/py32f0xx_hal_comp.c ****     }
 572:PY32F0xx_HAL_Driver/Src/py32f0xx_hal_comp.c ****   }
 573:PY32F0xx_HAL_Driver/Src/py32f0xx_hal_comp.c ****   else if (HAL_COMP_STATE_RESET == hcomp->State)
 574:PY32F0xx_HAL_Driver/Src/py32f0xx_hal_comp.c ****   {
 575:PY32F0xx_HAL_Driver/Src/py32f0xx_hal_comp.c ****     switch (CallbackID)
 576:PY32F0xx_HAL_Driver/Src/py32f0xx_hal_comp.c ****     {
 577:PY32F0xx_HAL_Driver/Src/py32f0xx_hal_comp.c ****     case HAL_COMP_MSPINIT_CB_ID :
 578:PY32F0xx_HAL_Driver/Src/py32f0xx_hal_comp.c ****       hcomp->MspInitCallback = pCallback;
 579:PY32F0xx_HAL_Driver/Src/py32f0xx_hal_comp.c ****       break;
 580:PY32F0xx_HAL_Driver/Src/py32f0xx_hal_comp.c **** 
ARM GAS  /tmp/ccHJbOwl.s 			page 40


 581:PY32F0xx_HAL_Driver/Src/py32f0xx_hal_comp.c ****     case HAL_COMP_MSPDEINIT_CB_ID :
 582:PY32F0xx_HAL_Driver/Src/py32f0xx_hal_comp.c ****       hcomp->MspDeInitCallback = pCallback;
 583:PY32F0xx_HAL_Driver/Src/py32f0xx_hal_comp.c ****       break;
 584:PY32F0xx_HAL_Driver/Src/py32f0xx_hal_comp.c **** 
 585:PY32F0xx_HAL_Driver/Src/py32f0xx_hal_comp.c ****     default :
 586:PY32F0xx_HAL_Driver/Src/py32f0xx_hal_comp.c ****       /* Update the error code */
 587:PY32F0xx_HAL_Driver/Src/py32f0xx_hal_comp.c ****       hcomp->ErrorCode |= HAL_COMP_ERROR_INVALID_CALLBACK;
 588:PY32F0xx_HAL_Driver/Src/py32f0xx_hal_comp.c **** 
 589:PY32F0xx_HAL_Driver/Src/py32f0xx_hal_comp.c ****       /* Return error status */
 590:PY32F0xx_HAL_Driver/Src/py32f0xx_hal_comp.c ****       status = HAL_ERROR;
 591:PY32F0xx_HAL_Driver/Src/py32f0xx_hal_comp.c ****       break;
 592:PY32F0xx_HAL_Driver/Src/py32f0xx_hal_comp.c ****     }
 593:PY32F0xx_HAL_Driver/Src/py32f0xx_hal_comp.c ****   }
 594:PY32F0xx_HAL_Driver/Src/py32f0xx_hal_comp.c ****   else
 595:PY32F0xx_HAL_Driver/Src/py32f0xx_hal_comp.c ****   {
 596:PY32F0xx_HAL_Driver/Src/py32f0xx_hal_comp.c ****     /* Update the error code */
 597:PY32F0xx_HAL_Driver/Src/py32f0xx_hal_comp.c ****     hcomp->ErrorCode |= HAL_COMP_ERROR_INVALID_CALLBACK;
 598:PY32F0xx_HAL_Driver/Src/py32f0xx_hal_comp.c **** 
 599:PY32F0xx_HAL_Driver/Src/py32f0xx_hal_comp.c ****     /* Return error status */
 600:PY32F0xx_HAL_Driver/Src/py32f0xx_hal_comp.c ****     status =  HAL_ERROR;
 601:PY32F0xx_HAL_Driver/Src/py32f0xx_hal_comp.c ****   }
 602:PY32F0xx_HAL_Driver/Src/py32f0xx_hal_comp.c **** 
 603:PY32F0xx_HAL_Driver/Src/py32f0xx_hal_comp.c ****   return status;
 604:PY32F0xx_HAL_Driver/Src/py32f0xx_hal_comp.c **** }
 605:PY32F0xx_HAL_Driver/Src/py32f0xx_hal_comp.c **** 
 606:PY32F0xx_HAL_Driver/Src/py32f0xx_hal_comp.c **** /**
 607:PY32F0xx_HAL_Driver/Src/py32f0xx_hal_comp.c ****   * @brief  Unregister a COMP Callback
 608:PY32F0xx_HAL_Driver/Src/py32f0xx_hal_comp.c ****   *         COMP callback is redirected to the weak predefined callback
 609:PY32F0xx_HAL_Driver/Src/py32f0xx_hal_comp.c ****   * @param  hcomp Pointer to a COMP_HandleTypeDef structure that contains
 610:PY32F0xx_HAL_Driver/Src/py32f0xx_hal_comp.c ****   *                the configuration information for the specified COMP.
 611:PY32F0xx_HAL_Driver/Src/py32f0xx_hal_comp.c ****   * @param  CallbackID ID of the callback to be unregistered
 612:PY32F0xx_HAL_Driver/Src/py32f0xx_hal_comp.c ****   *         This parameter can be one of the following values:
 613:PY32F0xx_HAL_Driver/Src/py32f0xx_hal_comp.c ****   *          @arg @ref HAL_COMP_TRIGGER_CB_ID Trigger callback ID
 614:PY32F0xx_HAL_Driver/Src/py32f0xx_hal_comp.c ****   *          @arg @ref HAL_COMP_MSPINIT_CB_ID MspInit callback ID
 615:PY32F0xx_HAL_Driver/Src/py32f0xx_hal_comp.c ****   *          @arg @ref HAL_COMP_MSPDEINIT_CB_ID MspDeInit callback ID
 616:PY32F0xx_HAL_Driver/Src/py32f0xx_hal_comp.c ****   * @retval HAL status
 617:PY32F0xx_HAL_Driver/Src/py32f0xx_hal_comp.c ****   */
 618:PY32F0xx_HAL_Driver/Src/py32f0xx_hal_comp.c **** HAL_StatusTypeDef HAL_COMP_UnRegisterCallback(COMP_HandleTypeDef *hcomp, HAL_COMP_CallbackIDTypeDef
 619:PY32F0xx_HAL_Driver/Src/py32f0xx_hal_comp.c **** {
 620:PY32F0xx_HAL_Driver/Src/py32f0xx_hal_comp.c ****   HAL_StatusTypeDef status = HAL_OK;
 621:PY32F0xx_HAL_Driver/Src/py32f0xx_hal_comp.c **** 
 622:PY32F0xx_HAL_Driver/Src/py32f0xx_hal_comp.c ****   if (HAL_COMP_STATE_READY == hcomp->State)
 623:PY32F0xx_HAL_Driver/Src/py32f0xx_hal_comp.c ****   {
 624:PY32F0xx_HAL_Driver/Src/py32f0xx_hal_comp.c ****     switch (CallbackID)
 625:PY32F0xx_HAL_Driver/Src/py32f0xx_hal_comp.c ****     {
 626:PY32F0xx_HAL_Driver/Src/py32f0xx_hal_comp.c ****     case HAL_COMP_TRIGGER_CB_ID :
 627:PY32F0xx_HAL_Driver/Src/py32f0xx_hal_comp.c ****       hcomp->TriggerCallback = HAL_COMP_TriggerCallback;         /* Legacy weak callback */
 628:PY32F0xx_HAL_Driver/Src/py32f0xx_hal_comp.c ****       break;
 629:PY32F0xx_HAL_Driver/Src/py32f0xx_hal_comp.c **** 
 630:PY32F0xx_HAL_Driver/Src/py32f0xx_hal_comp.c ****     case HAL_COMP_MSPINIT_CB_ID :
 631:PY32F0xx_HAL_Driver/Src/py32f0xx_hal_comp.c ****       hcomp->MspInitCallback = HAL_COMP_MspInit;                 /* Legacy weak MspInit */
 632:PY32F0xx_HAL_Driver/Src/py32f0xx_hal_comp.c ****       break;
 633:PY32F0xx_HAL_Driver/Src/py32f0xx_hal_comp.c **** 
 634:PY32F0xx_HAL_Driver/Src/py32f0xx_hal_comp.c ****     case HAL_COMP_MSPDEINIT_CB_ID :
 635:PY32F0xx_HAL_Driver/Src/py32f0xx_hal_comp.c ****       hcomp->MspDeInitCallback = HAL_COMP_MspDeInit;             /* Legacy weak MspDeInit */
 636:PY32F0xx_HAL_Driver/Src/py32f0xx_hal_comp.c ****       break;
 637:PY32F0xx_HAL_Driver/Src/py32f0xx_hal_comp.c **** 
ARM GAS  /tmp/ccHJbOwl.s 			page 41


 638:PY32F0xx_HAL_Driver/Src/py32f0xx_hal_comp.c ****     default :
 639:PY32F0xx_HAL_Driver/Src/py32f0xx_hal_comp.c ****       /* Update the error code */
 640:PY32F0xx_HAL_Driver/Src/py32f0xx_hal_comp.c ****       hcomp->ErrorCode |= HAL_COMP_ERROR_INVALID_CALLBACK;
 641:PY32F0xx_HAL_Driver/Src/py32f0xx_hal_comp.c **** 
 642:PY32F0xx_HAL_Driver/Src/py32f0xx_hal_comp.c ****       /* Return error status */
 643:PY32F0xx_HAL_Driver/Src/py32f0xx_hal_comp.c ****       status =  HAL_ERROR;
 644:PY32F0xx_HAL_Driver/Src/py32f0xx_hal_comp.c ****       break;
 645:PY32F0xx_HAL_Driver/Src/py32f0xx_hal_comp.c ****     }
 646:PY32F0xx_HAL_Driver/Src/py32f0xx_hal_comp.c ****   }
 647:PY32F0xx_HAL_Driver/Src/py32f0xx_hal_comp.c ****   else if (HAL_COMP_STATE_RESET == hcomp->State)
 648:PY32F0xx_HAL_Driver/Src/py32f0xx_hal_comp.c ****   {
 649:PY32F0xx_HAL_Driver/Src/py32f0xx_hal_comp.c ****     switch (CallbackID)
 650:PY32F0xx_HAL_Driver/Src/py32f0xx_hal_comp.c ****     {
 651:PY32F0xx_HAL_Driver/Src/py32f0xx_hal_comp.c ****     case HAL_COMP_MSPINIT_CB_ID :
 652:PY32F0xx_HAL_Driver/Src/py32f0xx_hal_comp.c ****       hcomp->MspInitCallback = HAL_COMP_MspInit;                 /* Legacy weak MspInit */
 653:PY32F0xx_HAL_Driver/Src/py32f0xx_hal_comp.c ****       break;
 654:PY32F0xx_HAL_Driver/Src/py32f0xx_hal_comp.c **** 
 655:PY32F0xx_HAL_Driver/Src/py32f0xx_hal_comp.c ****     case HAL_COMP_MSPDEINIT_CB_ID :
 656:PY32F0xx_HAL_Driver/Src/py32f0xx_hal_comp.c ****       hcomp->MspDeInitCallback = HAL_COMP_MspDeInit;             /* Legacy weak MspDeInit */
 657:PY32F0xx_HAL_Driver/Src/py32f0xx_hal_comp.c ****       break;
 658:PY32F0xx_HAL_Driver/Src/py32f0xx_hal_comp.c **** 
 659:PY32F0xx_HAL_Driver/Src/py32f0xx_hal_comp.c ****     default :
 660:PY32F0xx_HAL_Driver/Src/py32f0xx_hal_comp.c ****       /* Update the error code */
 661:PY32F0xx_HAL_Driver/Src/py32f0xx_hal_comp.c ****       hcomp->ErrorCode |= HAL_COMP_ERROR_INVALID_CALLBACK;
 662:PY32F0xx_HAL_Driver/Src/py32f0xx_hal_comp.c **** 
 663:PY32F0xx_HAL_Driver/Src/py32f0xx_hal_comp.c ****       /* Return error status */
 664:PY32F0xx_HAL_Driver/Src/py32f0xx_hal_comp.c ****       status =  HAL_ERROR;
 665:PY32F0xx_HAL_Driver/Src/py32f0xx_hal_comp.c ****       break;
 666:PY32F0xx_HAL_Driver/Src/py32f0xx_hal_comp.c ****     }
 667:PY32F0xx_HAL_Driver/Src/py32f0xx_hal_comp.c ****   }
 668:PY32F0xx_HAL_Driver/Src/py32f0xx_hal_comp.c ****   else
 669:PY32F0xx_HAL_Driver/Src/py32f0xx_hal_comp.c ****   {
 670:PY32F0xx_HAL_Driver/Src/py32f0xx_hal_comp.c ****     /* Update the error code */
 671:PY32F0xx_HAL_Driver/Src/py32f0xx_hal_comp.c ****     hcomp->ErrorCode |= HAL_COMP_ERROR_INVALID_CALLBACK;
 672:PY32F0xx_HAL_Driver/Src/py32f0xx_hal_comp.c **** 
 673:PY32F0xx_HAL_Driver/Src/py32f0xx_hal_comp.c ****     /* Return error status */
 674:PY32F0xx_HAL_Driver/Src/py32f0xx_hal_comp.c ****     status =  HAL_ERROR;
 675:PY32F0xx_HAL_Driver/Src/py32f0xx_hal_comp.c ****   }
 676:PY32F0xx_HAL_Driver/Src/py32f0xx_hal_comp.c **** 
 677:PY32F0xx_HAL_Driver/Src/py32f0xx_hal_comp.c ****   return status;
 678:PY32F0xx_HAL_Driver/Src/py32f0xx_hal_comp.c **** }
 679:PY32F0xx_HAL_Driver/Src/py32f0xx_hal_comp.c **** 
 680:PY32F0xx_HAL_Driver/Src/py32f0xx_hal_comp.c **** #endif /* USE_HAL_COMP_REGISTER_CALLBACKS */
 681:PY32F0xx_HAL_Driver/Src/py32f0xx_hal_comp.c **** 
 682:PY32F0xx_HAL_Driver/Src/py32f0xx_hal_comp.c **** /**
 683:PY32F0xx_HAL_Driver/Src/py32f0xx_hal_comp.c ****   * @}
 684:PY32F0xx_HAL_Driver/Src/py32f0xx_hal_comp.c ****   */
 685:PY32F0xx_HAL_Driver/Src/py32f0xx_hal_comp.c **** 
 686:PY32F0xx_HAL_Driver/Src/py32f0xx_hal_comp.c **** /** @defgroup COMP_Exported_Functions_Group2 Start-Stop operation functions
 687:PY32F0xx_HAL_Driver/Src/py32f0xx_hal_comp.c ****   *  @brief   Start-Stop operation functions.
 688:PY32F0xx_HAL_Driver/Src/py32f0xx_hal_comp.c ****   *
 689:PY32F0xx_HAL_Driver/Src/py32f0xx_hal_comp.c **** @verbatim
 690:PY32F0xx_HAL_Driver/Src/py32f0xx_hal_comp.c ****  ===============================================================================
 691:PY32F0xx_HAL_Driver/Src/py32f0xx_hal_comp.c ****                       ##### IO operation functions #####
 692:PY32F0xx_HAL_Driver/Src/py32f0xx_hal_comp.c ****  ===============================================================================
 693:PY32F0xx_HAL_Driver/Src/py32f0xx_hal_comp.c ****     [..]  This section provides functions allowing to:
 694:PY32F0xx_HAL_Driver/Src/py32f0xx_hal_comp.c ****       (+) Start a comparator instance.
ARM GAS  /tmp/ccHJbOwl.s 			page 42


 695:PY32F0xx_HAL_Driver/Src/py32f0xx_hal_comp.c ****       (+) Stop a comparator instance.
 696:PY32F0xx_HAL_Driver/Src/py32f0xx_hal_comp.c **** 
 697:PY32F0xx_HAL_Driver/Src/py32f0xx_hal_comp.c **** @endverbatim
 698:PY32F0xx_HAL_Driver/Src/py32f0xx_hal_comp.c ****   * @{
 699:PY32F0xx_HAL_Driver/Src/py32f0xx_hal_comp.c ****   */
 700:PY32F0xx_HAL_Driver/Src/py32f0xx_hal_comp.c **** 
 701:PY32F0xx_HAL_Driver/Src/py32f0xx_hal_comp.c **** /**
 702:PY32F0xx_HAL_Driver/Src/py32f0xx_hal_comp.c ****   * @brief  Start the comparator.
 703:PY32F0xx_HAL_Driver/Src/py32f0xx_hal_comp.c ****   * @param  hcomp  COMP handle
 704:PY32F0xx_HAL_Driver/Src/py32f0xx_hal_comp.c ****   * @retval HAL status
 705:PY32F0xx_HAL_Driver/Src/py32f0xx_hal_comp.c ****   */
 706:PY32F0xx_HAL_Driver/Src/py32f0xx_hal_comp.c **** HAL_StatusTypeDef HAL_COMP_Start(COMP_HandleTypeDef *hcomp)
 707:PY32F0xx_HAL_Driver/Src/py32f0xx_hal_comp.c **** {
 690              		.loc 1 707 1 is_stmt 1 view -0
 691              		.cfi_startproc
 692              		@ args = 0, pretend = 0, frame = 8
 693              		@ frame_needed = 0, uses_anonymous_args = 0
 694              		.loc 1 707 1 is_stmt 0 view .LVU189
 695 0000 00B5     		push	{lr}
 696              	.LCFI3:
 697              		.cfi_def_cfa_offset 4
 698              		.cfi_offset 14, -4
 699 0002 83B0     		sub	sp, sp, #12
 700              	.LCFI4:
 701              		.cfi_def_cfa_offset 16
 708:PY32F0xx_HAL_Driver/Src/py32f0xx_hal_comp.c ****   __IO uint32_t wait_loop_index = 0UL;
 702              		.loc 1 708 3 is_stmt 1 view .LVU190
 703              		.loc 1 708 17 is_stmt 0 view .LVU191
 704 0004 0023     		movs	r3, #0
 705 0006 0193     		str	r3, [sp, #4]
 709:PY32F0xx_HAL_Driver/Src/py32f0xx_hal_comp.c ****   HAL_StatusTypeDef status = HAL_OK;
 706              		.loc 1 709 3 is_stmt 1 view .LVU192
 707              	.LVL52:
 710:PY32F0xx_HAL_Driver/Src/py32f0xx_hal_comp.c **** 
 711:PY32F0xx_HAL_Driver/Src/py32f0xx_hal_comp.c ****   /* Check the COMP handle allocation and lock status */
 712:PY32F0xx_HAL_Driver/Src/py32f0xx_hal_comp.c ****   if(hcomp == NULL)
 708              		.loc 1 712 3 view .LVU193
 709              		.loc 1 712 5 is_stmt 0 view .LVU194
 710 0008 0028     		cmp	r0, #0
 711 000a 20D0     		beq	.L45
 713:PY32F0xx_HAL_Driver/Src/py32f0xx_hal_comp.c ****   {
 714:PY32F0xx_HAL_Driver/Src/py32f0xx_hal_comp.c ****     status = HAL_ERROR;
 715:PY32F0xx_HAL_Driver/Src/py32f0xx_hal_comp.c ****   }
 716:PY32F0xx_HAL_Driver/Src/py32f0xx_hal_comp.c ****   else if(__HAL_COMP_IS_LOCKED(hcomp))
 712              		.loc 1 716 8 is_stmt 1 view .LVU195
 713              		.loc 1 716 11 is_stmt 0 view .LVU196
 714 000c 0368     		ldr	r3, [r0]
 715 000e 1A68     		ldr	r2, [r3]
 716              		.loc 1 716 10 view .LVU197
 717 0010 002A     		cmp	r2, #0
 718 0012 1FDB     		blt	.L46
 717:PY32F0xx_HAL_Driver/Src/py32f0xx_hal_comp.c ****   {
 718:PY32F0xx_HAL_Driver/Src/py32f0xx_hal_comp.c ****     status = HAL_ERROR;
 719:PY32F0xx_HAL_Driver/Src/py32f0xx_hal_comp.c ****   }
 720:PY32F0xx_HAL_Driver/Src/py32f0xx_hal_comp.c ****   else
 721:PY32F0xx_HAL_Driver/Src/py32f0xx_hal_comp.c ****   {
 722:PY32F0xx_HAL_Driver/Src/py32f0xx_hal_comp.c ****     /* Check the parameter */
ARM GAS  /tmp/ccHJbOwl.s 			page 43


 723:PY32F0xx_HAL_Driver/Src/py32f0xx_hal_comp.c ****     assert_param(IS_COMP_ALL_INSTANCE(hcomp->Instance));
 719              		.loc 1 723 5 is_stmt 1 view .LVU198
 724:PY32F0xx_HAL_Driver/Src/py32f0xx_hal_comp.c **** 
 725:PY32F0xx_HAL_Driver/Src/py32f0xx_hal_comp.c ****     if(hcomp->State == HAL_COMP_STATE_READY)
 720              		.loc 1 725 5 view .LVU199
 721              		.loc 1 725 13 is_stmt 0 view .LVU200
 722 0014 2522     		movs	r2, #37
 723 0016 825C     		ldrb	r2, [r0, r2]
 724              		.loc 1 725 7 view .LVU201
 725 0018 012A     		cmp	r2, #1
 726 001a 01D0     		beq	.L48
 726:PY32F0xx_HAL_Driver/Src/py32f0xx_hal_comp.c ****     {
 727:PY32F0xx_HAL_Driver/Src/py32f0xx_hal_comp.c ****       /* Enable the selected comparator */
 728:PY32F0xx_HAL_Driver/Src/py32f0xx_hal_comp.c ****       SET_BIT(hcomp->Instance->CSR, COMP_CSR_EN);
 729:PY32F0xx_HAL_Driver/Src/py32f0xx_hal_comp.c **** 
 730:PY32F0xx_HAL_Driver/Src/py32f0xx_hal_comp.c ****       /* Set HAL COMP handle state */
 731:PY32F0xx_HAL_Driver/Src/py32f0xx_hal_comp.c ****       hcomp->State = HAL_COMP_STATE_BUSY;
 732:PY32F0xx_HAL_Driver/Src/py32f0xx_hal_comp.c **** 
 733:PY32F0xx_HAL_Driver/Src/py32f0xx_hal_comp.c ****       /* Delay for COMP startup time */
 734:PY32F0xx_HAL_Driver/Src/py32f0xx_hal_comp.c ****       /* Wait loop initialization and execution */
 735:PY32F0xx_HAL_Driver/Src/py32f0xx_hal_comp.c ****       /* Note: Variable divided by 2 to compensate partially              */
 736:PY32F0xx_HAL_Driver/Src/py32f0xx_hal_comp.c ****       /*       CPU processing cycles, scaling in us split to not          */
 737:PY32F0xx_HAL_Driver/Src/py32f0xx_hal_comp.c ****       /*       exceed 32 bits register capacity and handle low frequency. */
 738:PY32F0xx_HAL_Driver/Src/py32f0xx_hal_comp.c ****       wait_loop_index = ((COMP_DELAY_STARTUP_US / 10UL) * (SystemCoreClock / (100000UL * 2UL)));
 739:PY32F0xx_HAL_Driver/Src/py32f0xx_hal_comp.c ****       while(wait_loop_index != 0UL)
 740:PY32F0xx_HAL_Driver/Src/py32f0xx_hal_comp.c ****       {
 741:PY32F0xx_HAL_Driver/Src/py32f0xx_hal_comp.c ****         wait_loop_index--;
 742:PY32F0xx_HAL_Driver/Src/py32f0xx_hal_comp.c ****       }
 743:PY32F0xx_HAL_Driver/Src/py32f0xx_hal_comp.c ****     }
 744:PY32F0xx_HAL_Driver/Src/py32f0xx_hal_comp.c ****     else
 745:PY32F0xx_HAL_Driver/Src/py32f0xx_hal_comp.c ****     {
 746:PY32F0xx_HAL_Driver/Src/py32f0xx_hal_comp.c ****       status = HAL_ERROR;
 727              		.loc 1 746 14 view .LVU202
 728 001c 0120     		movs	r0, #1
 729              	.LVL53:
 730              		.loc 1 746 14 view .LVU203
 731 001e 17E0     		b	.L42
 732              	.LVL54:
 733              	.L48:
 728:PY32F0xx_HAL_Driver/Src/py32f0xx_hal_comp.c **** 
 734              		.loc 1 728 7 is_stmt 1 view .LVU204
 735 0020 1A68     		ldr	r2, [r3]
 736 0022 0121     		movs	r1, #1
 737 0024 0A43     		orrs	r2, r1
 738 0026 1A60     		str	r2, [r3]
 731:PY32F0xx_HAL_Driver/Src/py32f0xx_hal_comp.c **** 
 739              		.loc 1 731 7 view .LVU205
 731:PY32F0xx_HAL_Driver/Src/py32f0xx_hal_comp.c **** 
 740              		.loc 1 731 20 is_stmt 0 view .LVU206
 741 0028 2523     		movs	r3, #37
 742 002a 0222     		movs	r2, #2
 743 002c C254     		strb	r2, [r0, r3]
 738:PY32F0xx_HAL_Driver/Src/py32f0xx_hal_comp.c ****       while(wait_loop_index != 0UL)
 744              		.loc 1 738 7 is_stmt 1 view .LVU207
 738:PY32F0xx_HAL_Driver/Src/py32f0xx_hal_comp.c ****       while(wait_loop_index != 0UL)
 745              		.loc 1 738 76 is_stmt 0 view .LVU208
 746 002e 0A4B     		ldr	r3, .L49
ARM GAS  /tmp/ccHJbOwl.s 			page 44


 747 0030 1868     		ldr	r0, [r3]
 748              	.LVL55:
 738:PY32F0xx_HAL_Driver/Src/py32f0xx_hal_comp.c ****       while(wait_loop_index != 0UL)
 749              		.loc 1 738 76 view .LVU209
 750 0032 0A49     		ldr	r1, .L49+4
 751 0034 FFF7FEFF 		bl	__aeabi_uidiv
 752              	.LVL56:
 738:PY32F0xx_HAL_Driver/Src/py32f0xx_hal_comp.c ****       while(wait_loop_index != 0UL)
 753              		.loc 1 738 57 view .LVU210
 754 0038 C000     		lsls	r0, r0, #3
 738:PY32F0xx_HAL_Driver/Src/py32f0xx_hal_comp.c ****       while(wait_loop_index != 0UL)
 755              		.loc 1 738 23 view .LVU211
 756 003a 0190     		str	r0, [sp, #4]
 739:PY32F0xx_HAL_Driver/Src/py32f0xx_hal_comp.c ****       {
 757              		.loc 1 739 7 is_stmt 1 view .LVU212
 739:PY32F0xx_HAL_Driver/Src/py32f0xx_hal_comp.c ****       {
 758              		.loc 1 739 12 is_stmt 0 view .LVU213
 759 003c 02E0     		b	.L43
 760              	.L44:
 741:PY32F0xx_HAL_Driver/Src/py32f0xx_hal_comp.c ****       }
 761              		.loc 1 741 9 is_stmt 1 view .LVU214
 741:PY32F0xx_HAL_Driver/Src/py32f0xx_hal_comp.c ****       }
 762              		.loc 1 741 24 is_stmt 0 view .LVU215
 763 003e 019B     		ldr	r3, [sp, #4]
 764 0040 013B     		subs	r3, r3, #1
 765 0042 0193     		str	r3, [sp, #4]
 766              	.L43:
 739:PY32F0xx_HAL_Driver/Src/py32f0xx_hal_comp.c ****       {
 767              		.loc 1 739 29 is_stmt 1 view .LVU216
 768 0044 019B     		ldr	r3, [sp, #4]
 769 0046 002B     		cmp	r3, #0
 770 0048 F9D1     		bne	.L44
 709:PY32F0xx_HAL_Driver/Src/py32f0xx_hal_comp.c **** 
 771              		.loc 1 709 21 is_stmt 0 view .LVU217
 772 004a 0020     		movs	r0, #0
 773 004c 00E0     		b	.L42
 774              	.LVL57:
 775              	.L45:
 714:PY32F0xx_HAL_Driver/Src/py32f0xx_hal_comp.c ****   }
 776              		.loc 1 714 12 view .LVU218
 777 004e 0120     		movs	r0, #1
 778              	.LVL58:
 779              	.L42:
 747:PY32F0xx_HAL_Driver/Src/py32f0xx_hal_comp.c ****     }
 748:PY32F0xx_HAL_Driver/Src/py32f0xx_hal_comp.c ****   }
 749:PY32F0xx_HAL_Driver/Src/py32f0xx_hal_comp.c **** 
 750:PY32F0xx_HAL_Driver/Src/py32f0xx_hal_comp.c ****   return status;
 780              		.loc 1 750 3 is_stmt 1 view .LVU219
 751:PY32F0xx_HAL_Driver/Src/py32f0xx_hal_comp.c **** }
 781              		.loc 1 751 1 is_stmt 0 view .LVU220
 782 0050 03B0     		add	sp, sp, #12
 783              		@ sp needed
 784 0052 00BD     		pop	{pc}
 785              	.LVL59:
 786              	.L46:
 718:PY32F0xx_HAL_Driver/Src/py32f0xx_hal_comp.c ****   }
 787              		.loc 1 718 12 view .LVU221
ARM GAS  /tmp/ccHJbOwl.s 			page 45


 788 0054 0120     		movs	r0, #1
 789              	.LVL60:
 718:PY32F0xx_HAL_Driver/Src/py32f0xx_hal_comp.c ****   }
 790              		.loc 1 718 12 view .LVU222
 791 0056 FBE7     		b	.L42
 792              	.L50:
 793              		.align	2
 794              	.L49:
 795 0058 00000000 		.word	SystemCoreClock
 796 005c 400D0300 		.word	200000
 797              		.cfi_endproc
 798              	.LFE59:
 800              		.section	.text.HAL_COMP_Stop,"ax",%progbits
 801              		.align	1
 802              		.global	HAL_COMP_Stop
 803              		.syntax unified
 804              		.code	16
 805              		.thumb_func
 807              	HAL_COMP_Stop:
 808              	.LVL61:
 809              	.LFB60:
 752:PY32F0xx_HAL_Driver/Src/py32f0xx_hal_comp.c **** 
 753:PY32F0xx_HAL_Driver/Src/py32f0xx_hal_comp.c **** /**
 754:PY32F0xx_HAL_Driver/Src/py32f0xx_hal_comp.c ****   * @brief  Stop the comparator.
 755:PY32F0xx_HAL_Driver/Src/py32f0xx_hal_comp.c ****   * @param  hcomp  COMP handle
 756:PY32F0xx_HAL_Driver/Src/py32f0xx_hal_comp.c ****   * @retval HAL status
 757:PY32F0xx_HAL_Driver/Src/py32f0xx_hal_comp.c ****   */
 758:PY32F0xx_HAL_Driver/Src/py32f0xx_hal_comp.c **** HAL_StatusTypeDef HAL_COMP_Stop(COMP_HandleTypeDef *hcomp)
 759:PY32F0xx_HAL_Driver/Src/py32f0xx_hal_comp.c **** {
 810              		.loc 1 759 1 is_stmt 1 view -0
 811              		.cfi_startproc
 812              		@ args = 0, pretend = 0, frame = 0
 813              		@ frame_needed = 0, uses_anonymous_args = 0
 814              		@ link register save eliminated.
 760:PY32F0xx_HAL_Driver/Src/py32f0xx_hal_comp.c ****   HAL_StatusTypeDef status = HAL_OK;
 815              		.loc 1 760 3 view .LVU224
 761:PY32F0xx_HAL_Driver/Src/py32f0xx_hal_comp.c **** 
 762:PY32F0xx_HAL_Driver/Src/py32f0xx_hal_comp.c ****   /* Check the COMP handle allocation and lock status */
 763:PY32F0xx_HAL_Driver/Src/py32f0xx_hal_comp.c ****   if(hcomp == NULL)
 816              		.loc 1 763 3 view .LVU225
 817              		.loc 1 763 5 is_stmt 0 view .LVU226
 818 0000 0028     		cmp	r0, #0
 819 0002 0FD0     		beq	.L53
 764:PY32F0xx_HAL_Driver/Src/py32f0xx_hal_comp.c ****   {
 765:PY32F0xx_HAL_Driver/Src/py32f0xx_hal_comp.c ****     status = HAL_ERROR;
 766:PY32F0xx_HAL_Driver/Src/py32f0xx_hal_comp.c ****   }
 767:PY32F0xx_HAL_Driver/Src/py32f0xx_hal_comp.c ****   else if(__HAL_COMP_IS_LOCKED(hcomp))
 820              		.loc 1 767 8 is_stmt 1 view .LVU227
 821              		.loc 1 767 11 is_stmt 0 view .LVU228
 822 0004 0368     		ldr	r3, [r0]
 823 0006 1A68     		ldr	r2, [r3]
 824              		.loc 1 767 10 view .LVU229
 825 0008 002A     		cmp	r2, #0
 826 000a 0DDB     		blt	.L54
 768:PY32F0xx_HAL_Driver/Src/py32f0xx_hal_comp.c ****   {
 769:PY32F0xx_HAL_Driver/Src/py32f0xx_hal_comp.c ****     status = HAL_ERROR;
 770:PY32F0xx_HAL_Driver/Src/py32f0xx_hal_comp.c ****   }
ARM GAS  /tmp/ccHJbOwl.s 			page 46


 771:PY32F0xx_HAL_Driver/Src/py32f0xx_hal_comp.c ****   else
 772:PY32F0xx_HAL_Driver/Src/py32f0xx_hal_comp.c ****   {
 773:PY32F0xx_HAL_Driver/Src/py32f0xx_hal_comp.c ****     /* Check the parameter */
 774:PY32F0xx_HAL_Driver/Src/py32f0xx_hal_comp.c ****     assert_param(IS_COMP_ALL_INSTANCE(hcomp->Instance));
 827              		.loc 1 774 5 is_stmt 1 view .LVU230
 775:PY32F0xx_HAL_Driver/Src/py32f0xx_hal_comp.c **** 
 776:PY32F0xx_HAL_Driver/Src/py32f0xx_hal_comp.c ****     /* Check compliant states: HAL_COMP_STATE_READY or HAL_COMP_STATE_BUSY    */
 777:PY32F0xx_HAL_Driver/Src/py32f0xx_hal_comp.c ****     /* (all states except HAL_COMP_STATE_RESET and except locked status.      */
 778:PY32F0xx_HAL_Driver/Src/py32f0xx_hal_comp.c ****     if(hcomp->State != HAL_COMP_STATE_RESET)
 828              		.loc 1 778 5 view .LVU231
 829              		.loc 1 778 13 is_stmt 0 view .LVU232
 830 000c 2522     		movs	r2, #37
 831 000e 825C     		ldrb	r2, [r0, r2]
 832              		.loc 1 778 7 view .LVU233
 833 0010 002A     		cmp	r2, #0
 834 0012 0BD0     		beq	.L55
 779:PY32F0xx_HAL_Driver/Src/py32f0xx_hal_comp.c ****     {
 780:PY32F0xx_HAL_Driver/Src/py32f0xx_hal_comp.c ****       /* Disable the selected comparator */
 781:PY32F0xx_HAL_Driver/Src/py32f0xx_hal_comp.c ****       CLEAR_BIT(hcomp->Instance->CSR, COMP_CSR_EN);
 835              		.loc 1 781 7 is_stmt 1 view .LVU234
 836 0014 1A68     		ldr	r2, [r3]
 837 0016 0121     		movs	r1, #1
 838 0018 8A43     		bics	r2, r1
 839 001a 1A60     		str	r2, [r3]
 782:PY32F0xx_HAL_Driver/Src/py32f0xx_hal_comp.c **** 
 783:PY32F0xx_HAL_Driver/Src/py32f0xx_hal_comp.c ****       /* Set HAL COMP handle state */
 784:PY32F0xx_HAL_Driver/Src/py32f0xx_hal_comp.c ****       hcomp->State = HAL_COMP_STATE_READY;
 840              		.loc 1 784 7 view .LVU235
 841              		.loc 1 784 20 is_stmt 0 view .LVU236
 842 001c 2523     		movs	r3, #37
 843 001e C154     		strb	r1, [r0, r3]
 760:PY32F0xx_HAL_Driver/Src/py32f0xx_hal_comp.c **** 
 844              		.loc 1 760 21 view .LVU237
 845 0020 0020     		movs	r0, #0
 846              	.LVL62:
 760:PY32F0xx_HAL_Driver/Src/py32f0xx_hal_comp.c **** 
 847              		.loc 1 760 21 view .LVU238
 848 0022 00E0     		b	.L52
 849              	.LVL63:
 850              	.L53:
 765:PY32F0xx_HAL_Driver/Src/py32f0xx_hal_comp.c ****   }
 851              		.loc 1 765 12 view .LVU239
 852 0024 0120     		movs	r0, #1
 853              	.LVL64:
 854              	.L52:
 785:PY32F0xx_HAL_Driver/Src/py32f0xx_hal_comp.c ****     }
 786:PY32F0xx_HAL_Driver/Src/py32f0xx_hal_comp.c ****     else
 787:PY32F0xx_HAL_Driver/Src/py32f0xx_hal_comp.c ****     {
 788:PY32F0xx_HAL_Driver/Src/py32f0xx_hal_comp.c ****       status = HAL_ERROR;
 789:PY32F0xx_HAL_Driver/Src/py32f0xx_hal_comp.c ****     }
 790:PY32F0xx_HAL_Driver/Src/py32f0xx_hal_comp.c ****   }
 791:PY32F0xx_HAL_Driver/Src/py32f0xx_hal_comp.c **** 
 792:PY32F0xx_HAL_Driver/Src/py32f0xx_hal_comp.c ****   return status;
 855              		.loc 1 792 3 is_stmt 1 view .LVU240
 793:PY32F0xx_HAL_Driver/Src/py32f0xx_hal_comp.c **** }
 856              		.loc 1 793 1 is_stmt 0 view .LVU241
 857              		@ sp needed
ARM GAS  /tmp/ccHJbOwl.s 			page 47


 858 0026 7047     		bx	lr
 859              	.LVL65:
 860              	.L54:
 769:PY32F0xx_HAL_Driver/Src/py32f0xx_hal_comp.c ****   }
 861              		.loc 1 769 12 view .LVU242
 862 0028 0120     		movs	r0, #1
 863              	.LVL66:
 769:PY32F0xx_HAL_Driver/Src/py32f0xx_hal_comp.c ****   }
 864              		.loc 1 769 12 view .LVU243
 865 002a FCE7     		b	.L52
 866              	.LVL67:
 867              	.L55:
 788:PY32F0xx_HAL_Driver/Src/py32f0xx_hal_comp.c ****     }
 868              		.loc 1 788 14 view .LVU244
 869 002c 0120     		movs	r0, #1
 870              	.LVL68:
 788:PY32F0xx_HAL_Driver/Src/py32f0xx_hal_comp.c ****     }
 871              		.loc 1 788 14 view .LVU245
 872 002e FAE7     		b	.L52
 873              		.cfi_endproc
 874              	.LFE60:
 876              		.section	.text.HAL_COMP_Lock,"ax",%progbits
 877              		.align	1
 878              		.global	HAL_COMP_Lock
 879              		.syntax unified
 880              		.code	16
 881              		.thumb_func
 883              	HAL_COMP_Lock:
 884              	.LVL69:
 885              	.LFB62:
 794:PY32F0xx_HAL_Driver/Src/py32f0xx_hal_comp.c **** 
 795:PY32F0xx_HAL_Driver/Src/py32f0xx_hal_comp.c **** /**
 796:PY32F0xx_HAL_Driver/Src/py32f0xx_hal_comp.c ****   * @brief  Comparator IRQ handler.
 797:PY32F0xx_HAL_Driver/Src/py32f0xx_hal_comp.c ****   * @param  hcomp  COMP handle
 798:PY32F0xx_HAL_Driver/Src/py32f0xx_hal_comp.c ****   * @retval None
 799:PY32F0xx_HAL_Driver/Src/py32f0xx_hal_comp.c ****   */
 800:PY32F0xx_HAL_Driver/Src/py32f0xx_hal_comp.c **** void HAL_COMP_IRQHandler(COMP_HandleTypeDef *hcomp)
 801:PY32F0xx_HAL_Driver/Src/py32f0xx_hal_comp.c **** {
 802:PY32F0xx_HAL_Driver/Src/py32f0xx_hal_comp.c ****   /* Get the EXTI line corresponding to the selected COMP instance */
 803:PY32F0xx_HAL_Driver/Src/py32f0xx_hal_comp.c ****   uint32_t exti_line = COMP_GET_EXTI_LINE(hcomp->Instance);
 804:PY32F0xx_HAL_Driver/Src/py32f0xx_hal_comp.c ****   uint32_t comparator_window_mode_odd = READ_BIT(COMP12_COMMON->CSR_ODD, COMP_CSR_WINMODE);
 805:PY32F0xx_HAL_Driver/Src/py32f0xx_hal_comp.c ****   uint32_t comparator_window_mode_even = READ_BIT(COMP12_COMMON->CSR_EVEN, COMP_CSR_WINMODE);
 806:PY32F0xx_HAL_Driver/Src/py32f0xx_hal_comp.c **** 
 807:PY32F0xx_HAL_Driver/Src/py32f0xx_hal_comp.c ****   /* Check COMP EXTI flag */
 808:PY32F0xx_HAL_Driver/Src/py32f0xx_hal_comp.c ****   if(LL_EXTI_IsActiveFlag(exti_line) != 0UL)
 809:PY32F0xx_HAL_Driver/Src/py32f0xx_hal_comp.c ****   {
 810:PY32F0xx_HAL_Driver/Src/py32f0xx_hal_comp.c ****     /* Check whether comparator is in independent or window mode */
 811:PY32F0xx_HAL_Driver/Src/py32f0xx_hal_comp.c ****     if(   (comparator_window_mode_odd != 0UL)
 812:PY32F0xx_HAL_Driver/Src/py32f0xx_hal_comp.c ****           || (comparator_window_mode_even != 0UL))
 813:PY32F0xx_HAL_Driver/Src/py32f0xx_hal_comp.c ****     {
 814:PY32F0xx_HAL_Driver/Src/py32f0xx_hal_comp.c ****       /* Clear COMP EXTI line pending bit of the pair of comparators          */
 815:PY32F0xx_HAL_Driver/Src/py32f0xx_hal_comp.c ****       /* in window mode.                                                      */
 816:PY32F0xx_HAL_Driver/Src/py32f0xx_hal_comp.c ****       /* Note: Pair of comparators in window mode can both trig IRQ when      */
 817:PY32F0xx_HAL_Driver/Src/py32f0xx_hal_comp.c ****       /*       input voltage is changing from "out of window" area            */
 818:PY32F0xx_HAL_Driver/Src/py32f0xx_hal_comp.c ****       /*       (low or high ) to the other "out of window" area (high or low).*/
 819:PY32F0xx_HAL_Driver/Src/py32f0xx_hal_comp.c ****       /*       Both flags must be cleared to call comparator trigger          */
 820:PY32F0xx_HAL_Driver/Src/py32f0xx_hal_comp.c ****       /*       callback is called once.                                       */
ARM GAS  /tmp/ccHJbOwl.s 			page 48


 821:PY32F0xx_HAL_Driver/Src/py32f0xx_hal_comp.c ****       LL_EXTI_ClearFlag((COMP_EXTI_LINE_COMP1 | COMP_EXTI_LINE_COMP2));
 822:PY32F0xx_HAL_Driver/Src/py32f0xx_hal_comp.c ****     }
 823:PY32F0xx_HAL_Driver/Src/py32f0xx_hal_comp.c ****     else
 824:PY32F0xx_HAL_Driver/Src/py32f0xx_hal_comp.c ****     {
 825:PY32F0xx_HAL_Driver/Src/py32f0xx_hal_comp.c ****       /* Clear COMP EXTI line pending bit */
 826:PY32F0xx_HAL_Driver/Src/py32f0xx_hal_comp.c ****       LL_EXTI_ClearFlag(exti_line);
 827:PY32F0xx_HAL_Driver/Src/py32f0xx_hal_comp.c ****     }
 828:PY32F0xx_HAL_Driver/Src/py32f0xx_hal_comp.c **** 
 829:PY32F0xx_HAL_Driver/Src/py32f0xx_hal_comp.c ****     /* COMP trigger user callback */
 830:PY32F0xx_HAL_Driver/Src/py32f0xx_hal_comp.c **** #if (USE_HAL_COMP_REGISTER_CALLBACKS == 1)
 831:PY32F0xx_HAL_Driver/Src/py32f0xx_hal_comp.c ****     hcomp->TriggerCallback(hcomp);
 832:PY32F0xx_HAL_Driver/Src/py32f0xx_hal_comp.c **** #else
 833:PY32F0xx_HAL_Driver/Src/py32f0xx_hal_comp.c ****     HAL_COMP_TriggerCallback(hcomp);
 834:PY32F0xx_HAL_Driver/Src/py32f0xx_hal_comp.c **** #endif /* USE_HAL_COMP_REGISTER_CALLBACKS */
 835:PY32F0xx_HAL_Driver/Src/py32f0xx_hal_comp.c ****   }
 836:PY32F0xx_HAL_Driver/Src/py32f0xx_hal_comp.c ****   else
 837:PY32F0xx_HAL_Driver/Src/py32f0xx_hal_comp.c ****   {
 838:PY32F0xx_HAL_Driver/Src/py32f0xx_hal_comp.c ****     /* nothing to do */
 839:PY32F0xx_HAL_Driver/Src/py32f0xx_hal_comp.c ****   }
 840:PY32F0xx_HAL_Driver/Src/py32f0xx_hal_comp.c **** }
 841:PY32F0xx_HAL_Driver/Src/py32f0xx_hal_comp.c **** 
 842:PY32F0xx_HAL_Driver/Src/py32f0xx_hal_comp.c **** /**
 843:PY32F0xx_HAL_Driver/Src/py32f0xx_hal_comp.c ****   * @}
 844:PY32F0xx_HAL_Driver/Src/py32f0xx_hal_comp.c ****   */
 845:PY32F0xx_HAL_Driver/Src/py32f0xx_hal_comp.c **** 
 846:PY32F0xx_HAL_Driver/Src/py32f0xx_hal_comp.c **** /** @defgroup COMP_Exported_Functions_Group3 Peripheral Control functions
 847:PY32F0xx_HAL_Driver/Src/py32f0xx_hal_comp.c ****   *  @brief   Management functions.
 848:PY32F0xx_HAL_Driver/Src/py32f0xx_hal_comp.c ****   *
 849:PY32F0xx_HAL_Driver/Src/py32f0xx_hal_comp.c **** @verbatim
 850:PY32F0xx_HAL_Driver/Src/py32f0xx_hal_comp.c ****  ===============================================================================
 851:PY32F0xx_HAL_Driver/Src/py32f0xx_hal_comp.c ****                       ##### Peripheral Control functions #####
 852:PY32F0xx_HAL_Driver/Src/py32f0xx_hal_comp.c ****  ===============================================================================
 853:PY32F0xx_HAL_Driver/Src/py32f0xx_hal_comp.c ****     [..]
 854:PY32F0xx_HAL_Driver/Src/py32f0xx_hal_comp.c ****     This subsection provides a set of functions allowing to control the comparators.
 855:PY32F0xx_HAL_Driver/Src/py32f0xx_hal_comp.c **** 
 856:PY32F0xx_HAL_Driver/Src/py32f0xx_hal_comp.c **** @endverbatim
 857:PY32F0xx_HAL_Driver/Src/py32f0xx_hal_comp.c ****   * @{
 858:PY32F0xx_HAL_Driver/Src/py32f0xx_hal_comp.c ****   */
 859:PY32F0xx_HAL_Driver/Src/py32f0xx_hal_comp.c **** 
 860:PY32F0xx_HAL_Driver/Src/py32f0xx_hal_comp.c **** /**
 861:PY32F0xx_HAL_Driver/Src/py32f0xx_hal_comp.c ****   * @brief  Lock the selected comparator configuration.
 862:PY32F0xx_HAL_Driver/Src/py32f0xx_hal_comp.c ****   * @note   A system reset is required to unlock the comparator configuration.
 863:PY32F0xx_HAL_Driver/Src/py32f0xx_hal_comp.c ****   * @note   Locking the comparator from reset state is possible
 864:PY32F0xx_HAL_Driver/Src/py32f0xx_hal_comp.c ****   *         if __HAL_RCC_SYSCFG_CLK_ENABLE() is being called before.
 865:PY32F0xx_HAL_Driver/Src/py32f0xx_hal_comp.c ****   * @param  hcomp  COMP handle
 866:PY32F0xx_HAL_Driver/Src/py32f0xx_hal_comp.c ****   * @retval HAL status
 867:PY32F0xx_HAL_Driver/Src/py32f0xx_hal_comp.c ****   */
 868:PY32F0xx_HAL_Driver/Src/py32f0xx_hal_comp.c **** HAL_StatusTypeDef HAL_COMP_Lock(COMP_HandleTypeDef *hcomp)
 869:PY32F0xx_HAL_Driver/Src/py32f0xx_hal_comp.c **** {
 886              		.loc 1 869 1 is_stmt 1 view -0
 887              		.cfi_startproc
 888              		@ args = 0, pretend = 0, frame = 0
 889              		@ frame_needed = 0, uses_anonymous_args = 0
 890              		@ link register save eliminated.
 870:PY32F0xx_HAL_Driver/Src/py32f0xx_hal_comp.c ****   HAL_StatusTypeDef status = HAL_OK;
 891              		.loc 1 870 3 view .LVU247
 871:PY32F0xx_HAL_Driver/Src/py32f0xx_hal_comp.c **** 
ARM GAS  /tmp/ccHJbOwl.s 			page 49


 872:PY32F0xx_HAL_Driver/Src/py32f0xx_hal_comp.c ****   /* Check the COMP handle allocation and lock status */
 873:PY32F0xx_HAL_Driver/Src/py32f0xx_hal_comp.c ****   if(hcomp == NULL)
 892              		.loc 1 873 3 view .LVU248
 893              		.loc 1 873 5 is_stmt 0 view .LVU249
 894 0000 0028     		cmp	r0, #0
 895 0002 1CD0     		beq	.L62
 874:PY32F0xx_HAL_Driver/Src/py32f0xx_hal_comp.c ****   {
 875:PY32F0xx_HAL_Driver/Src/py32f0xx_hal_comp.c ****     status = HAL_ERROR;
 876:PY32F0xx_HAL_Driver/Src/py32f0xx_hal_comp.c ****   }
 877:PY32F0xx_HAL_Driver/Src/py32f0xx_hal_comp.c ****   else if(__HAL_COMP_IS_LOCKED(hcomp))
 896              		.loc 1 877 8 is_stmt 1 view .LVU250
 897              		.loc 1 877 11 is_stmt 0 view .LVU251
 898 0004 0368     		ldr	r3, [r0]
 899 0006 1A68     		ldr	r2, [r3]
 900              		.loc 1 877 10 view .LVU252
 901 0008 002A     		cmp	r2, #0
 902 000a 1ADB     		blt	.L63
 878:PY32F0xx_HAL_Driver/Src/py32f0xx_hal_comp.c ****   {
 879:PY32F0xx_HAL_Driver/Src/py32f0xx_hal_comp.c ****     status = HAL_ERROR;
 880:PY32F0xx_HAL_Driver/Src/py32f0xx_hal_comp.c ****   }
 881:PY32F0xx_HAL_Driver/Src/py32f0xx_hal_comp.c ****   else
 882:PY32F0xx_HAL_Driver/Src/py32f0xx_hal_comp.c ****   {
 883:PY32F0xx_HAL_Driver/Src/py32f0xx_hal_comp.c ****     /* Check the parameter */
 884:PY32F0xx_HAL_Driver/Src/py32f0xx_hal_comp.c ****     assert_param(IS_COMP_ALL_INSTANCE(hcomp->Instance));
 903              		.loc 1 884 5 is_stmt 1 view .LVU253
 885:PY32F0xx_HAL_Driver/Src/py32f0xx_hal_comp.c **** 
 886:PY32F0xx_HAL_Driver/Src/py32f0xx_hal_comp.c ****     /* Set HAL COMP handle state */
 887:PY32F0xx_HAL_Driver/Src/py32f0xx_hal_comp.c ****     switch(hcomp->State)
 904              		.loc 1 887 5 view .LVU254
 905              		.loc 1 887 17 is_stmt 0 view .LVU255
 906 000c 2522     		movs	r2, #37
 907 000e 825C     		ldrb	r2, [r0, r2]
 908 0010 D1B2     		uxtb	r1, r2
 909              		.loc 1 887 5 view .LVU256
 910 0012 002A     		cmp	r2, #0
 911 0014 05D0     		beq	.L58
 912 0016 0129     		cmp	r1, #1
 913 0018 0DD0     		beq	.L59
 888:PY32F0xx_HAL_Driver/Src/py32f0xx_hal_comp.c ****     {
 889:PY32F0xx_HAL_Driver/Src/py32f0xx_hal_comp.c ****     case HAL_COMP_STATE_RESET:
 890:PY32F0xx_HAL_Driver/Src/py32f0xx_hal_comp.c ****       hcomp->State = HAL_COMP_STATE_RESET_LOCKED;
 891:PY32F0xx_HAL_Driver/Src/py32f0xx_hal_comp.c ****       break;
 892:PY32F0xx_HAL_Driver/Src/py32f0xx_hal_comp.c ****     case HAL_COMP_STATE_READY:
 893:PY32F0xx_HAL_Driver/Src/py32f0xx_hal_comp.c ****       hcomp->State = HAL_COMP_STATE_READY_LOCKED;
 894:PY32F0xx_HAL_Driver/Src/py32f0xx_hal_comp.c ****       break;
 895:PY32F0xx_HAL_Driver/Src/py32f0xx_hal_comp.c ****     default: /* HAL_COMP_STATE_BUSY */
 896:PY32F0xx_HAL_Driver/Src/py32f0xx_hal_comp.c ****       hcomp->State = HAL_COMP_STATE_BUSY_LOCKED;
 914              		.loc 1 896 7 is_stmt 1 view .LVU257
 915              		.loc 1 896 20 is_stmt 0 view .LVU258
 916 001a 2522     		movs	r2, #37
 917 001c 1221     		movs	r1, #18
 918 001e 8154     		strb	r1, [r0, r2]
 897:PY32F0xx_HAL_Driver/Src/py32f0xx_hal_comp.c ****       break;
 919              		.loc 1 897 7 is_stmt 1 view .LVU259
 898:PY32F0xx_HAL_Driver/Src/py32f0xx_hal_comp.c ****     }
 899:PY32F0xx_HAL_Driver/Src/py32f0xx_hal_comp.c ****   }
 900:PY32F0xx_HAL_Driver/Src/py32f0xx_hal_comp.c **** 
ARM GAS  /tmp/ccHJbOwl.s 			page 50


 901:PY32F0xx_HAL_Driver/Src/py32f0xx_hal_comp.c ****   if(status == HAL_OK)
 920              		.loc 1 901 3 view .LVU260
 921 0020 02E0     		b	.L61
 922              	.L58:
 890:PY32F0xx_HAL_Driver/Src/py32f0xx_hal_comp.c ****       break;
 923              		.loc 1 890 7 view .LVU261
 890:PY32F0xx_HAL_Driver/Src/py32f0xx_hal_comp.c ****       break;
 924              		.loc 1 890 20 is_stmt 0 view .LVU262
 925 0022 2522     		movs	r2, #37
 926 0024 1021     		movs	r1, #16
 927 0026 8154     		strb	r1, [r0, r2]
 891:PY32F0xx_HAL_Driver/Src/py32f0xx_hal_comp.c ****     case HAL_COMP_STATE_READY:
 928              		.loc 1 891 7 is_stmt 1 view .LVU263
 929              		.loc 1 901 3 view .LVU264
 930              	.L61:
 902:PY32F0xx_HAL_Driver/Src/py32f0xx_hal_comp.c ****   {
 903:PY32F0xx_HAL_Driver/Src/py32f0xx_hal_comp.c ****     /* Set the lock bit corresponding to selected comparator */
 904:PY32F0xx_HAL_Driver/Src/py32f0xx_hal_comp.c ****     __HAL_COMP_LOCK(hcomp);
 931              		.loc 1 904 5 view .LVU265
 932 0028 1968     		ldr	r1, [r3]
 933 002a 8022     		movs	r2, #128
 934 002c 1206     		lsls	r2, r2, #24
 935 002e 0A43     		orrs	r2, r1
 936 0030 1A60     		str	r2, [r3]
 937 0032 0020     		movs	r0, #0
 938              	.LVL70:
 939              	.L57:
 905:PY32F0xx_HAL_Driver/Src/py32f0xx_hal_comp.c ****   }
 906:PY32F0xx_HAL_Driver/Src/py32f0xx_hal_comp.c **** 
 907:PY32F0xx_HAL_Driver/Src/py32f0xx_hal_comp.c ****   return status;
 940              		.loc 1 907 3 view .LVU266
 908:PY32F0xx_HAL_Driver/Src/py32f0xx_hal_comp.c **** }
 941              		.loc 1 908 1 is_stmt 0 view .LVU267
 942              		@ sp needed
 943 0034 7047     		bx	lr
 944              	.LVL71:
 945              	.L59:
 893:PY32F0xx_HAL_Driver/Src/py32f0xx_hal_comp.c ****       break;
 946              		.loc 1 893 7 is_stmt 1 view .LVU268
 893:PY32F0xx_HAL_Driver/Src/py32f0xx_hal_comp.c ****       break;
 947              		.loc 1 893 20 is_stmt 0 view .LVU269
 948 0036 2522     		movs	r2, #37
 949 0038 1121     		movs	r1, #17
 950 003a 8154     		strb	r1, [r0, r2]
 894:PY32F0xx_HAL_Driver/Src/py32f0xx_hal_comp.c ****     default: /* HAL_COMP_STATE_BUSY */
 951              		.loc 1 894 7 is_stmt 1 view .LVU270
 901:PY32F0xx_HAL_Driver/Src/py32f0xx_hal_comp.c ****   {
 952              		.loc 1 901 3 view .LVU271
 953 003c F4E7     		b	.L61
 954              	.L62:
 875:PY32F0xx_HAL_Driver/Src/py32f0xx_hal_comp.c ****   }
 955              		.loc 1 875 12 is_stmt 0 view .LVU272
 956 003e 0120     		movs	r0, #1
 957              	.LVL72:
 875:PY32F0xx_HAL_Driver/Src/py32f0xx_hal_comp.c ****   }
 958              		.loc 1 875 12 view .LVU273
 959 0040 F8E7     		b	.L57
ARM GAS  /tmp/ccHJbOwl.s 			page 51


 960              	.LVL73:
 961              	.L63:
 879:PY32F0xx_HAL_Driver/Src/py32f0xx_hal_comp.c ****   }
 962              		.loc 1 879 12 view .LVU274
 963 0042 0120     		movs	r0, #1
 964              	.LVL74:
 879:PY32F0xx_HAL_Driver/Src/py32f0xx_hal_comp.c ****   }
 965              		.loc 1 879 12 view .LVU275
 966 0044 F6E7     		b	.L57
 967              		.cfi_endproc
 968              	.LFE62:
 970              		.section	.text.HAL_COMP_GetOutputLevel,"ax",%progbits
 971              		.align	1
 972              		.global	HAL_COMP_GetOutputLevel
 973              		.syntax unified
 974              		.code	16
 975              		.thumb_func
 977              	HAL_COMP_GetOutputLevel:
 978              	.LVL75:
 979              	.LFB63:
 909:PY32F0xx_HAL_Driver/Src/py32f0xx_hal_comp.c **** 
 910:PY32F0xx_HAL_Driver/Src/py32f0xx_hal_comp.c **** /**
 911:PY32F0xx_HAL_Driver/Src/py32f0xx_hal_comp.c ****   * @brief  Return the output level (high or low) of the selected comparator.
 912:PY32F0xx_HAL_Driver/Src/py32f0xx_hal_comp.c ****   *         The output level depends on the selected polarity.
 913:PY32F0xx_HAL_Driver/Src/py32f0xx_hal_comp.c ****   *         If the polarity is not inverted:
 914:PY32F0xx_HAL_Driver/Src/py32f0xx_hal_comp.c ****   *           - Comparator output is low when the input plus is at a lower
 915:PY32F0xx_HAL_Driver/Src/py32f0xx_hal_comp.c ****   *             voltage than the input minus
 916:PY32F0xx_HAL_Driver/Src/py32f0xx_hal_comp.c ****   *           - Comparator output is high when the input plus is at a higher
 917:PY32F0xx_HAL_Driver/Src/py32f0xx_hal_comp.c ****   *             voltage than the input minus
 918:PY32F0xx_HAL_Driver/Src/py32f0xx_hal_comp.c ****   *         If the polarity is inverted:
 919:PY32F0xx_HAL_Driver/Src/py32f0xx_hal_comp.c ****   *           - Comparator output is high when the input plus is at a lower
 920:PY32F0xx_HAL_Driver/Src/py32f0xx_hal_comp.c ****   *             voltage than the input minus
 921:PY32F0xx_HAL_Driver/Src/py32f0xx_hal_comp.c ****   *           - Comparator output is low when the input plus is at a higher
 922:PY32F0xx_HAL_Driver/Src/py32f0xx_hal_comp.c ****   *             voltage than the input minus
 923:PY32F0xx_HAL_Driver/Src/py32f0xx_hal_comp.c ****   * @param  hcomp  COMP handle
 924:PY32F0xx_HAL_Driver/Src/py32f0xx_hal_comp.c ****   * @retval Returns the selected comparator output level:
 925:PY32F0xx_HAL_Driver/Src/py32f0xx_hal_comp.c ****   *         @arg COMP_OUTPUT_LEVEL_LOW
 926:PY32F0xx_HAL_Driver/Src/py32f0xx_hal_comp.c ****   *         @arg COMP_OUTPUT_LEVEL_HIGH
 927:PY32F0xx_HAL_Driver/Src/py32f0xx_hal_comp.c ****   *
 928:PY32F0xx_HAL_Driver/Src/py32f0xx_hal_comp.c ****   */
 929:PY32F0xx_HAL_Driver/Src/py32f0xx_hal_comp.c **** uint32_t HAL_COMP_GetOutputLevel(COMP_HandleTypeDef *hcomp)
 930:PY32F0xx_HAL_Driver/Src/py32f0xx_hal_comp.c **** {
 980              		.loc 1 930 1 is_stmt 1 view -0
 981              		.cfi_startproc
 982              		@ args = 0, pretend = 0, frame = 0
 983              		@ frame_needed = 0, uses_anonymous_args = 0
 984              		@ link register save eliminated.
 931:PY32F0xx_HAL_Driver/Src/py32f0xx_hal_comp.c ****   /* Check the parameter */
 932:PY32F0xx_HAL_Driver/Src/py32f0xx_hal_comp.c ****   assert_param(IS_COMP_ALL_INSTANCE(hcomp->Instance));
 985              		.loc 1 932 3 view .LVU277
 933:PY32F0xx_HAL_Driver/Src/py32f0xx_hal_comp.c **** 
 934:PY32F0xx_HAL_Driver/Src/py32f0xx_hal_comp.c ****   return (uint32_t)(READ_BIT(hcomp->Instance->CSR, COMP_CSR_COMP_OUT)
 986              		.loc 1 934 3 view .LVU278
 987              		.loc 1 934 21 is_stmt 0 view .LVU279
 988 0000 0368     		ldr	r3, [r0]
 989 0002 1B68     		ldr	r3, [r3]
 990              		.loc 1 934 10 view .LVU280
ARM GAS  /tmp/ccHJbOwl.s 			page 52


 991 0004 9B0F     		lsrs	r3, r3, #30
 992 0006 0120     		movs	r0, #1
 993              	.LVL76:
 994              		.loc 1 934 10 view .LVU281
 995 0008 1840     		ands	r0, r3
 935:PY32F0xx_HAL_Driver/Src/py32f0xx_hal_comp.c ****                     >> COMP_OUTPUT_LEVEL_BITOFFSET_POS);
 936:PY32F0xx_HAL_Driver/Src/py32f0xx_hal_comp.c **** }
 996              		.loc 1 936 1 view .LVU282
 997              		@ sp needed
 998 000a 7047     		bx	lr
 999              		.cfi_endproc
 1000              	.LFE63:
 1002              		.section	.text.HAL_COMP_TriggerCallback,"ax",%progbits
 1003              		.align	1
 1004              		.weak	HAL_COMP_TriggerCallback
 1005              		.syntax unified
 1006              		.code	16
 1007              		.thumb_func
 1009              	HAL_COMP_TriggerCallback:
 1010              	.LVL77:
 1011              	.LFB64:
 937:PY32F0xx_HAL_Driver/Src/py32f0xx_hal_comp.c **** 
 938:PY32F0xx_HAL_Driver/Src/py32f0xx_hal_comp.c **** /**
 939:PY32F0xx_HAL_Driver/Src/py32f0xx_hal_comp.c ****   * @brief  Comparator trigger callback.
 940:PY32F0xx_HAL_Driver/Src/py32f0xx_hal_comp.c ****   * @param  hcomp  COMP handle
 941:PY32F0xx_HAL_Driver/Src/py32f0xx_hal_comp.c ****   * @retval None
 942:PY32F0xx_HAL_Driver/Src/py32f0xx_hal_comp.c ****   */
 943:PY32F0xx_HAL_Driver/Src/py32f0xx_hal_comp.c **** __weak void HAL_COMP_TriggerCallback(COMP_HandleTypeDef *hcomp)
 944:PY32F0xx_HAL_Driver/Src/py32f0xx_hal_comp.c **** {
 1012              		.loc 1 944 1 is_stmt 1 view -0
 1013              		.cfi_startproc
 1014              		@ args = 0, pretend = 0, frame = 0
 1015              		@ frame_needed = 0, uses_anonymous_args = 0
 1016              		@ link register save eliminated.
 945:PY32F0xx_HAL_Driver/Src/py32f0xx_hal_comp.c ****   /* Prevent unused argument(s) compilation warning */
 946:PY32F0xx_HAL_Driver/Src/py32f0xx_hal_comp.c ****   UNUSED(hcomp);
 1017              		.loc 1 946 3 view .LVU284
 947:PY32F0xx_HAL_Driver/Src/py32f0xx_hal_comp.c **** 
 948:PY32F0xx_HAL_Driver/Src/py32f0xx_hal_comp.c ****   /* NOTE : This function should not be modified, when the callback is needed,
 949:PY32F0xx_HAL_Driver/Src/py32f0xx_hal_comp.c ****             the HAL_COMP_TriggerCallback should be implemented in the user file
 950:PY32F0xx_HAL_Driver/Src/py32f0xx_hal_comp.c ****    */
 951:PY32F0xx_HAL_Driver/Src/py32f0xx_hal_comp.c **** }
 1018              		.loc 1 951 1 is_stmt 0 view .LVU285
 1019              		@ sp needed
 1020 0000 7047     		bx	lr
 1021              		.cfi_endproc
 1022              	.LFE64:
 1024              		.section	.text.HAL_COMP_IRQHandler,"ax",%progbits
 1025              		.align	1
 1026              		.global	HAL_COMP_IRQHandler
 1027              		.syntax unified
 1028              		.code	16
 1029              		.thumb_func
 1031              	HAL_COMP_IRQHandler:
 1032              	.LVL78:
 1033              	.LFB61:
 801:PY32F0xx_HAL_Driver/Src/py32f0xx_hal_comp.c ****   /* Get the EXTI line corresponding to the selected COMP instance */
ARM GAS  /tmp/ccHJbOwl.s 			page 53


 1034              		.loc 1 801 1 is_stmt 1 view -0
 1035              		.cfi_startproc
 1036              		@ args = 0, pretend = 0, frame = 0
 1037              		@ frame_needed = 0, uses_anonymous_args = 0
 801:PY32F0xx_HAL_Driver/Src/py32f0xx_hal_comp.c ****   /* Get the EXTI line corresponding to the selected COMP instance */
 1038              		.loc 1 801 1 is_stmt 0 view .LVU287
 1039 0000 10B5     		push	{r4, lr}
 1040              	.LCFI5:
 1041              		.cfi_def_cfa_offset 8
 1042              		.cfi_offset 4, -8
 1043              		.cfi_offset 14, -4
 803:PY32F0xx_HAL_Driver/Src/py32f0xx_hal_comp.c ****   uint32_t comparator_window_mode_odd = READ_BIT(COMP12_COMMON->CSR_ODD, COMP_CSR_WINMODE);
 1044              		.loc 1 803 3 is_stmt 1 view .LVU288
 803:PY32F0xx_HAL_Driver/Src/py32f0xx_hal_comp.c ****   uint32_t comparator_window_mode_odd = READ_BIT(COMP12_COMMON->CSR_ODD, COMP_CSR_WINMODE);
 1045              		.loc 1 803 24 is_stmt 0 view .LVU289
 1046 0002 0268     		ldr	r2, [r0]
 1047 0004 0E4B     		ldr	r3, .L75
 1048 0006 9A42     		cmp	r2, r3
 1049 0008 0AD0     		beq	.L73
 803:PY32F0xx_HAL_Driver/Src/py32f0xx_hal_comp.c ****   uint32_t comparator_window_mode_odd = READ_BIT(COMP12_COMMON->CSR_ODD, COMP_CSR_WINMODE);
 1050              		.loc 1 803 24 discriminator 2 view .LVU290
 1051 000a 8022     		movs	r2, #128
 1052 000c D202     		lsls	r2, r2, #11
 1053              	.L68:
 1054              	.LVL79:
 804:PY32F0xx_HAL_Driver/Src/py32f0xx_hal_comp.c ****   uint32_t comparator_window_mode_even = READ_BIT(COMP12_COMMON->CSR_EVEN, COMP_CSR_WINMODE);
 1055              		.loc 1 804 3 is_stmt 1 view .LVU291
 804:PY32F0xx_HAL_Driver/Src/py32f0xx_hal_comp.c ****   uint32_t comparator_window_mode_even = READ_BIT(COMP12_COMMON->CSR_EVEN, COMP_CSR_WINMODE);
 1056              		.loc 1 804 41 is_stmt 0 view .LVU292
 1057 000e 0C4B     		ldr	r3, .L75
 1058 0010 1968     		ldr	r1, [r3]
 1059              	.LVL80:
 805:PY32F0xx_HAL_Driver/Src/py32f0xx_hal_comp.c **** 
 1060              		.loc 1 805 3 is_stmt 1 view .LVU293
 805:PY32F0xx_HAL_Driver/Src/py32f0xx_hal_comp.c **** 
 1061              		.loc 1 805 42 is_stmt 0 view .LVU294
 1062 0012 1C69     		ldr	r4, [r3, #16]
 1063              	.LVL81:
 808:PY32F0xx_HAL_Driver/Src/py32f0xx_hal_comp.c ****   {
 1064              		.loc 1 808 3 is_stmt 1 view .LVU295
 1065              	.LBB52:
 1066              	.LBI52:
 728:PY32F0xx_HAL_Driver/Inc/py32f0xx_ll_exti.h **** {
 1067              		.loc 2 728 26 view .LVU296
 1068              	.LBB53:
 730:PY32F0xx_HAL_Driver/Inc/py32f0xx_ll_exti.h **** }
 1069              		.loc 2 730 3 view .LVU297
 730:PY32F0xx_HAL_Driver/Inc/py32f0xx_ll_exti.h **** }
 1070              		.loc 2 730 11 is_stmt 0 view .LVU298
 1071 0014 0B4B     		ldr	r3, .L75+4
 1072 0016 DB68     		ldr	r3, [r3, #12]
 1073 0018 1340     		ands	r3, r2
 1074              	.LVL82:
 730:PY32F0xx_HAL_Driver/Inc/py32f0xx_ll_exti.h **** }
 1075              		.loc 2 730 11 view .LVU299
 1076              	.LBE53:
 1077              	.LBE52:
ARM GAS  /tmp/ccHJbOwl.s 			page 54


 808:PY32F0xx_HAL_Driver/Src/py32f0xx_hal_comp.c ****   {
 1078              		.loc 1 808 5 discriminator 1 view .LVU300
 1079 001a 9A42     		cmp	r2, r3
 1080 001c 03D0     		beq	.L74
 1081              	.LVL83:
 1082              	.L67:
 840:PY32F0xx_HAL_Driver/Src/py32f0xx_hal_comp.c **** 
 1083              		.loc 1 840 1 view .LVU301
 1084              		@ sp needed
 1085              	.LVL84:
 840:PY32F0xx_HAL_Driver/Src/py32f0xx_hal_comp.c **** 
 1086              		.loc 1 840 1 view .LVU302
 1087 001e 10BD     		pop	{r4, pc}
 1088              	.LVL85:
 1089              	.L73:
 803:PY32F0xx_HAL_Driver/Src/py32f0xx_hal_comp.c ****   uint32_t comparator_window_mode_odd = READ_BIT(COMP12_COMMON->CSR_ODD, COMP_CSR_WINMODE);
 1090              		.loc 1 803 24 discriminator 1 view .LVU303
 1091 0020 8022     		movs	r2, #128
 1092 0022 9202     		lsls	r2, r2, #10
 1093 0024 F3E7     		b	.L68
 1094              	.LVL86:
 1095              	.L74:
 811:PY32F0xx_HAL_Driver/Src/py32f0xx_hal_comp.c ****           || (comparator_window_mode_even != 0UL))
 1096              		.loc 1 811 5 is_stmt 1 view .LVU304
 812:PY32F0xx_HAL_Driver/Src/py32f0xx_hal_comp.c ****     {
 1097              		.loc 1 812 11 is_stmt 0 view .LVU305
 1098 0026 2143     		orrs	r1, r4
 1099              	.LVL87:
 811:PY32F0xx_HAL_Driver/Src/py32f0xx_hal_comp.c ****           || (comparator_window_mode_even != 0UL))
 1100              		.loc 1 811 7 view .LVU306
 1101 0028 0905     		lsls	r1, r1, #20
 1102 002a 06D5     		bpl	.L70
 821:PY32F0xx_HAL_Driver/Src/py32f0xx_hal_comp.c ****     }
 1103              		.loc 1 821 7 is_stmt 1 view .LVU307
 1104              	.LVL88:
 1105              	.LBB54:
 1106              	.LBI54:
 788:PY32F0xx_HAL_Driver/Inc/py32f0xx_ll_exti.h **** {
 1107              		.loc 2 788 22 view .LVU308
 1108              	.LBB55:
 1109              		.loc 2 790 3 view .LVU309
 1110 002c 054B     		ldr	r3, .L75+4
 1111 002e C022     		movs	r2, #192
 1112              	.LVL89:
 1113              		.loc 2 790 3 is_stmt 0 view .LVU310
 1114 0030 D202     		lsls	r2, r2, #11
 1115 0032 DA60     		str	r2, [r3, #12]
 1116              	.LVL90:
 1117              	.L71:
 1118              		.loc 2 790 3 view .LVU311
 1119              	.LBE55:
 1120              	.LBE54:
 833:PY32F0xx_HAL_Driver/Src/py32f0xx_hal_comp.c **** #endif /* USE_HAL_COMP_REGISTER_CALLBACKS */
 1121              		.loc 1 833 5 is_stmt 1 view .LVU312
 1122 0034 FFF7FEFF 		bl	HAL_COMP_TriggerCallback
 1123              	.LVL91:
 839:PY32F0xx_HAL_Driver/Src/py32f0xx_hal_comp.c **** }
ARM GAS  /tmp/ccHJbOwl.s 			page 55


 1124              		.loc 1 839 3 view .LVU313
 840:PY32F0xx_HAL_Driver/Src/py32f0xx_hal_comp.c **** 
 1125              		.loc 1 840 1 is_stmt 0 view .LVU314
 1126 0038 F1E7     		b	.L67
 1127              	.LVL92:
 1128              	.L70:
 826:PY32F0xx_HAL_Driver/Src/py32f0xx_hal_comp.c ****     }
 1129              		.loc 1 826 7 is_stmt 1 view .LVU315
 1130              	.LBB56:
 1131              	.LBI56:
 788:PY32F0xx_HAL_Driver/Inc/py32f0xx_ll_exti.h **** {
 1132              		.loc 2 788 22 view .LVU316
 1133              	.LBB57:
 1134              		.loc 2 790 3 view .LVU317
 1135 003a 024B     		ldr	r3, .L75+4
 1136 003c DA60     		str	r2, [r3, #12]
 1137              	.LVL93:
 791:PY32F0xx_HAL_Driver/Inc/py32f0xx_ll_exti.h **** }
 1138              		.loc 2 791 1 is_stmt 0 view .LVU318
 1139 003e F9E7     		b	.L71
 1140              	.L76:
 1141              		.align	2
 1142              	.L75:
 1143 0040 00020140 		.word	1073807872
 1144 0044 00180240 		.word	1073879040
 1145              	.LBE57:
 1146              	.LBE56:
 1147              		.cfi_endproc
 1148              	.LFE61:
 1150              		.section	.text.HAL_COMP_GetState,"ax",%progbits
 1151              		.align	1
 1152              		.global	HAL_COMP_GetState
 1153              		.syntax unified
 1154              		.code	16
 1155              		.thumb_func
 1157              	HAL_COMP_GetState:
 1158              	.LVL94:
 1159              	.LFB65:
 952:PY32F0xx_HAL_Driver/Src/py32f0xx_hal_comp.c **** 
 953:PY32F0xx_HAL_Driver/Src/py32f0xx_hal_comp.c **** 
 954:PY32F0xx_HAL_Driver/Src/py32f0xx_hal_comp.c **** /**
 955:PY32F0xx_HAL_Driver/Src/py32f0xx_hal_comp.c ****   * @}
 956:PY32F0xx_HAL_Driver/Src/py32f0xx_hal_comp.c ****   */
 957:PY32F0xx_HAL_Driver/Src/py32f0xx_hal_comp.c **** 
 958:PY32F0xx_HAL_Driver/Src/py32f0xx_hal_comp.c **** /** @defgroup COMP_Exported_Functions_Group4 Peripheral State functions
 959:PY32F0xx_HAL_Driver/Src/py32f0xx_hal_comp.c ****   *  @brief   Peripheral State functions.
 960:PY32F0xx_HAL_Driver/Src/py32f0xx_hal_comp.c ****   *
 961:PY32F0xx_HAL_Driver/Src/py32f0xx_hal_comp.c **** @verbatim
 962:PY32F0xx_HAL_Driver/Src/py32f0xx_hal_comp.c ****  ===============================================================================
 963:PY32F0xx_HAL_Driver/Src/py32f0xx_hal_comp.c ****                       ##### Peripheral State functions #####
 964:PY32F0xx_HAL_Driver/Src/py32f0xx_hal_comp.c ****  ===============================================================================
 965:PY32F0xx_HAL_Driver/Src/py32f0xx_hal_comp.c ****     [..]
 966:PY32F0xx_HAL_Driver/Src/py32f0xx_hal_comp.c ****     This subsection permit to get in run-time the status of the peripheral.
 967:PY32F0xx_HAL_Driver/Src/py32f0xx_hal_comp.c **** 
 968:PY32F0xx_HAL_Driver/Src/py32f0xx_hal_comp.c **** @endverbatim
 969:PY32F0xx_HAL_Driver/Src/py32f0xx_hal_comp.c ****   * @{
 970:PY32F0xx_HAL_Driver/Src/py32f0xx_hal_comp.c ****   */
ARM GAS  /tmp/ccHJbOwl.s 			page 56


 971:PY32F0xx_HAL_Driver/Src/py32f0xx_hal_comp.c **** 
 972:PY32F0xx_HAL_Driver/Src/py32f0xx_hal_comp.c **** /**
 973:PY32F0xx_HAL_Driver/Src/py32f0xx_hal_comp.c ****   * @brief  Return the COMP handle state.
 974:PY32F0xx_HAL_Driver/Src/py32f0xx_hal_comp.c ****   * @param  hcomp  COMP handle
 975:PY32F0xx_HAL_Driver/Src/py32f0xx_hal_comp.c ****   * @retval HAL state
 976:PY32F0xx_HAL_Driver/Src/py32f0xx_hal_comp.c ****   */
 977:PY32F0xx_HAL_Driver/Src/py32f0xx_hal_comp.c **** HAL_COMP_StateTypeDef HAL_COMP_GetState(COMP_HandleTypeDef *hcomp)
 978:PY32F0xx_HAL_Driver/Src/py32f0xx_hal_comp.c **** {
 1160              		.loc 1 978 1 is_stmt 1 view -0
 1161              		.cfi_startproc
 1162              		@ args = 0, pretend = 0, frame = 0
 1163              		@ frame_needed = 0, uses_anonymous_args = 0
 1164              		@ link register save eliminated.
 979:PY32F0xx_HAL_Driver/Src/py32f0xx_hal_comp.c ****   /* Check the COMP handle allocation */
 980:PY32F0xx_HAL_Driver/Src/py32f0xx_hal_comp.c ****   if(hcomp == NULL)
 1165              		.loc 1 980 3 view .LVU320
 1166              		.loc 1 980 5 is_stmt 0 view .LVU321
 1167 0000 0028     		cmp	r0, #0
 1168 0002 03D0     		beq	.L79
 981:PY32F0xx_HAL_Driver/Src/py32f0xx_hal_comp.c ****   {
 982:PY32F0xx_HAL_Driver/Src/py32f0xx_hal_comp.c ****     return HAL_COMP_STATE_RESET;
 983:PY32F0xx_HAL_Driver/Src/py32f0xx_hal_comp.c ****   }
 984:PY32F0xx_HAL_Driver/Src/py32f0xx_hal_comp.c **** 
 985:PY32F0xx_HAL_Driver/Src/py32f0xx_hal_comp.c ****   /* Check the parameter */
 986:PY32F0xx_HAL_Driver/Src/py32f0xx_hal_comp.c ****   assert_param(IS_COMP_ALL_INSTANCE(hcomp->Instance));
 1169              		.loc 1 986 3 is_stmt 1 view .LVU322
 987:PY32F0xx_HAL_Driver/Src/py32f0xx_hal_comp.c **** 
 988:PY32F0xx_HAL_Driver/Src/py32f0xx_hal_comp.c ****   /* Return HAL COMP handle state */
 989:PY32F0xx_HAL_Driver/Src/py32f0xx_hal_comp.c ****   return hcomp->State;
 1170              		.loc 1 989 3 view .LVU323
 1171              		.loc 1 989 15 is_stmt 0 view .LVU324
 1172 0004 2523     		movs	r3, #37
 1173 0006 C05C     		ldrb	r0, [r0, r3]
 1174              	.LVL95:
 1175              		.loc 1 989 15 view .LVU325
 1176 0008 C0B2     		uxtb	r0, r0
 1177              	.L78:
 990:PY32F0xx_HAL_Driver/Src/py32f0xx_hal_comp.c **** }
 1178              		.loc 1 990 1 view .LVU326
 1179              		@ sp needed
 1180 000a 7047     		bx	lr
 1181              	.LVL96:
 1182              	.L79:
 982:PY32F0xx_HAL_Driver/Src/py32f0xx_hal_comp.c ****   }
 1183              		.loc 1 982 12 view .LVU327
 1184 000c 0020     		movs	r0, #0
 1185              	.LVL97:
 982:PY32F0xx_HAL_Driver/Src/py32f0xx_hal_comp.c ****   }
 1186              		.loc 1 982 12 view .LVU328
 1187 000e FCE7     		b	.L78
 1188              		.cfi_endproc
 1189              	.LFE65:
 1191              		.section	.text.HAL_COMP_GetError,"ax",%progbits
 1192              		.align	1
 1193              		.global	HAL_COMP_GetError
 1194              		.syntax unified
 1195              		.code	16
ARM GAS  /tmp/ccHJbOwl.s 			page 57


 1196              		.thumb_func
 1198              	HAL_COMP_GetError:
 1199              	.LVL98:
 1200              	.LFB66:
 991:PY32F0xx_HAL_Driver/Src/py32f0xx_hal_comp.c **** 
 992:PY32F0xx_HAL_Driver/Src/py32f0xx_hal_comp.c **** /**
 993:PY32F0xx_HAL_Driver/Src/py32f0xx_hal_comp.c ****   * @brief  Return the COMP error code.
 994:PY32F0xx_HAL_Driver/Src/py32f0xx_hal_comp.c ****   * @param hcomp COMP handle
 995:PY32F0xx_HAL_Driver/Src/py32f0xx_hal_comp.c ****   * @retval COMP error code
 996:PY32F0xx_HAL_Driver/Src/py32f0xx_hal_comp.c ****   */
 997:PY32F0xx_HAL_Driver/Src/py32f0xx_hal_comp.c **** uint32_t HAL_COMP_GetError(COMP_HandleTypeDef *hcomp)
 998:PY32F0xx_HAL_Driver/Src/py32f0xx_hal_comp.c **** {
 1201              		.loc 1 998 1 is_stmt 1 view -0
 1202              		.cfi_startproc
 1203              		@ args = 0, pretend = 0, frame = 0
 1204              		@ frame_needed = 0, uses_anonymous_args = 0
 1205              		@ link register save eliminated.
 999:PY32F0xx_HAL_Driver/Src/py32f0xx_hal_comp.c ****   /* Check the parameters */
1000:PY32F0xx_HAL_Driver/Src/py32f0xx_hal_comp.c ****   assert_param(IS_COMP_ALL_INSTANCE(hcomp->Instance));
 1206              		.loc 1 1000 3 view .LVU330
1001:PY32F0xx_HAL_Driver/Src/py32f0xx_hal_comp.c **** 
1002:PY32F0xx_HAL_Driver/Src/py32f0xx_hal_comp.c ****   return hcomp->ErrorCode;
 1207              		.loc 1 1002 3 view .LVU331
 1208              		.loc 1 1002 15 is_stmt 0 view .LVU332
 1209 0000 806A     		ldr	r0, [r0, #40]
 1210              	.LVL99:
1003:PY32F0xx_HAL_Driver/Src/py32f0xx_hal_comp.c **** }
 1211              		.loc 1 1003 1 view .LVU333
 1212              		@ sp needed
 1213 0002 7047     		bx	lr
 1214              		.cfi_endproc
 1215              	.LFE66:
 1217              		.text
 1218              	.Letext0:
 1219              		.file 3 "CMSIS/Device/PY32F0xx/Include/py32f003x8.h"
 1220              		.file 4 "/usr/lib/gcc/arm-none-eabi/14.2.1/include/stdint.h"
 1221              		.file 5 "PY32F0xx_HAL_Driver/Inc/py32f0xx_hal_def.h"
 1222              		.file 6 "PY32F0xx_HAL_Driver/Inc/py32f0xx_hal_comp.h"
 1223              		.file 7 "CMSIS/Device/PY32F0xx/Include/system_py32f0xx.h"
ARM GAS  /tmp/ccHJbOwl.s 			page 58

